(dp0
S'metrics'
p1
(dp2
S'test'
p3
ccopy_reg
_reconstructor
p4
(c__main__
Metrics
p5
c__builtin__
object
p6
Ntp7
Rp8
(dp9
S'impute_accuracy'
p10
cnumpy.core.multiarray
scalar
p11
(cnumpy
dtype
p12
(S'f8'
p13
I0
I1
tp14
Rp15
(I3
S'<'
p16
NNNI-1
I-1
I0
tp17
bS'\xcd\xc6\x1f`<\xd0=@'
p18
tp19
Rp20
sS'cross_entropy'
p21
g11
(g15
S'vxt<\xfb\xe2d@'
p22
tp23
Rp24
sS'logProb'
p25
g11
(g15
S'vxt<\xfb\xe2d\xc0'
p26
tp27
Rp28
sS'pll'
p29
g28
sS'accuracy'
p30
g20
sbsS'train'
p31
g4
(g5
g6
Ntp32
Rp33
(dp34
g10
g11
(g15
S'ya\xa0\x99X\xef=@'
p35
tp36
Rp37
sg21
g11
(g15
S']qk\x1c\x9a\xd2d@'
p38
tp39
Rp40
sg25
g11
(g15
S']qk\x1c\x9a\xd2d\xc0'
p41
tp42
Rp43
sg29
g43
sg30
g37
sbsS'valid'
p44
g4
(g5
g6
Ntp45
Rp46
(dp47
g10
g11
(g15
S'$\x18=\ts\xda=@'
p48
tp49
Rp50
sg21
g11
(g15
S'\x9a\xa7\x044\x8a\xe1d@'
p51
tp52
Rp53
sg25
g11
(g15
S'\x9a\xa7\x044\x8a\xe1d\xc0'
p54
tp55
Rp56
sg29
g56
sg30
g50
sbssS'model'
p57
g4
(c__main__
Multinomial
p58
g6
Ntp59
Rp60
(dp61
S'vmf'
p62
(lp63
(dp64
I0
F0.006062169482780859
sI1
F0.0034825228943634722
sI2
F0.002708628917838256
sI3
F0.0032245582355217334
sI4
F0.0020637172707339093
sI5
F0.00012898232942086933
sI6
F0.00025796465884173866
sI7
F0.001160840964787824
sI8
F0.0005159293176834773
sI9
F0.011479427318457372
sI10
F0.06294337675738423
sI11
F0.0014188056236295627
sI12
F0.0006449116471043467
sI13
F0.0073519927769895525
sI14
F0.09015864826518767
sI15
F0.014188056236295628
sI16
F0.04527279762672514
sI17
F0.006836063459306075
sI18
F0.0036115052237843414
sI19
F0.002321681929575648
sI20
F0.7341674190635883
sa(dp65
I0
F0.008383851412356508
sI1
F0.156971494905198
sI2
F0.099703340642332
sI3
F0.11311750290210242
sI4
F0.000773893976525216
sI5
F0.006191151812201728
sI6
F0.0016767702824713015
sI7
F0.007480975106410422
sI8
F0.0006449116471043467
sI9
F0.002321681929575648
sI10
F0.007223010447568683
sI11
F0.0019347349413130401
sI12
F0.002321681929575648
sI13
F0.00025796465884173866
sI14
F0.002966593576679995
sI15
F0.000773893976525216
sI16
F0.0028376112472591254
sI17
F0.0016767702824713015
sI18
F0.002321681929575648
sI19
F0.000386946988262608
sI20
F0.5800335354056494
sa(dp66
I0
F0.014317038565716497
sI1
F0.04475686830904166
sI2
F0.016251773507029537
sI3
F0.043209080355991226
sI4
F0.005159293176834774
sI5
F0.0020637172707339093
sI6
F0.001160840964787824
sI7
F0.0038694698826260802
sI8
F0.0038694698826260802
sI9
F0.02373274861343996
sI10
F0.06307235908680511
sI11
F0.006707081129885206
sI12
F0.004256416870888688
sI13
F0.01354314458919128
sI14
F0.02927898877853734
sI15
F0.01186637430671998
sI16
F0.052108861086031216
sI17
F0.049400232168192955
sI18
F0.046175673932671225
sI19
F0.014446020895137366
sI20
F0.5507545466271121
sa(dp67
I0
F0.017025667483554753
sI1
F0.061653553463175546
sI2
F0.18560557203663097
sI3
F0.06719979362827293
sI4
F0.0024506642589965173
sI5
F0.01573584418934606
sI6
F0.00012898232942086933
sI7
F0.03675996388494776
sI8
F0.001160840964787824
sI9
F0.0069650457887269444
sI10
F0.011092480330194764
sI11
F0.0006449116471043467
sI12
F0.0020637172707339093
sI13
F0.0018057526118921707
sI14
F0.005417257835676512
sI15
F0.010060621694827809
sI16
F0.02540951889591126
sI17
F0.01560686185992519
sI18
F0.006449116471043467
sI19
F0.000773893976525216
sI20
F0.5259899393783052
sa(dp68
I0
F0.01367212691861215
sI1
F0.035470140590739066
sI2
F0.012382303624403457
sI3
F0.018444473107184316
sI4
F0.02166903134270605
sI5
F0.0193473494131304
sI6
F0.0010318586353669547
sI7
F0.006062169482780859
sI8
F0.010576551012511285
sI9
F0.047594479556300785
sI10
F0.04901328517993035
sI11
F0.009286727718302593
sI12
F0.015219914871662582
sI13
F0.028634077131432994
sI14
F0.02992390042564169
sI15
F0.018573455436605185
sI16
F0.04346704501483297
sI17
F0.0399845221204695
sI18
F0.0319876176963756
sI19
F0.03327744099058429
sI20
F0.514381529730427
sa(dp69
I0
F0.008125886753514769
sI1
F0.005546240165097382
sI2
F0.02347478395459822
sI3
F0.002708628917838256
sI4
F0.0290210241196956
sI5
F0.0014188056236295627
sI6
F0.0009028763059460854
sI7
F0.006449116471043467
sI8
F0.09518895911260157
sI9
F0.006578098800464336
sI10
F0.00580420482393912
sI11
F0.0009028763059460854
sI12
F0.0006449116471043467
sI13
F0.006449116471043467
sI14
F0.007223010447568683
sI15
F0.007223010447568683
sI16
F0.009157745388881724
sI17
F0.16767702824713016
sI18
F0.10757126273700503
sI19
F0.0010318586353669547
sI20
F0.5069005546240165
sa(dp70
I0
F0.014703985553979105
sI1
F0.008383851412356508
sI2
F0.00399845221204695
sI3
F0.004256416870888688
sI4
F0.017928543789500838
sI5
F0.003353540564942603
sI6
F0.0006449116471043467
sI7
F0.001547787953050432
sI8
F0.02115310202502257
sI9
F0.03418031729653038
sI10
F0.020379208048497355
sI11
F0.001547787953050432
sI12
F0.00580420482393912
sI13
F0.016896685154133884
sI14
F0.019218367083709532
sI15
F0.047981426544563395
sI16
F0.047594479556300785
sI17
F0.041661292402940794
sI18
F0.024119695601702566
sI19
F0.008254869082935637
sI20
F0.6563910744228041
sa(dp71
I0
F0.033664387978846896
sI1
F0.02128208435444344
sI2
F0.008125886753514769
sI3
F0.011479427318457372
sI4
F0.04733651489745905
sI5
F0.0014188056236295627
sI6
F0.000773893976525216
sI7
F0.0016767702824713015
sI8
F0.09905842899522765
sI9
F0.09531794144202245
sI10
F0.06062169482780859
sI11
F0.004127434541467819
sI12
F0.0014188056236295627
sI13
F0.02553850122533213
sI14
F0.03779182252031472
sI15
F0.042822133367728624
sI16
F0.10512059847800852
sI17
F0.05842899522765381
sI18
F0.04140332774409906
sI19
F0.008899780730039985
sI20
F0.2936927640913195
sa(dp72
I0
F0.026828324519540824
sI1
F0.015477879530504321
sI2
F0.03972655746162776
sI3
F0.006578098800464336
sI4
F0.034309299625951244
sI5
F0.05817103056881207
sI6
F0.0009028763059460854
sI7
F0.006191151812201728
sI8
F0.08125886753514769
sI9
F0.04411195666193731
sI10
F0.021926996001547787
sI11
F0.004772346188572166
sI12
F0.03598606990842255
sI13
F0.03856571649683993
sI14
F0.02154004901328518
sI15
F0.037662840190893845
sI16
F0.032890494002321684
sI17
F0.028763059460853863
sI18
F0.15813233586998582
sI19
F0.0563652779569199
sI20
F0.24983877208822391
sa(dp73
I0
F0.08074293821746421
sI1
F0.024893589578227782
sI2
F0.01173739197729911
sI3
F0.008254869082935637
sI4
F0.07390687475815813
sI5
F0.005159293176834774
sI6
F0.00012898232942086933
sI7
F0.004514381529730427
sI8
F0.24841996646459436
sI9
F0.0610086418160712
sI10
F0.03856571649683993
sI11
F0.005546240165097382
sI12
F0.011995356636140849
sI13
F0.034438281955372116
sI14
F0.03972655746162776
sI15
F0.038436734167419065
sI16
F0.09364117115955115
sI17
F0.03327744099058429
sI18
F0.02940797110795821
sI19
F0.0096736747065652
sI20
F0.14652392622210758
sa(dp74
I0
F0.03456726428479298
sI1
F0.022055978330968656
sI2
F0.016896685154133884
sI3
F0.010963498000773893
sI4
F0.06681284664001032
sI5
F0.022313942989810397
sI6
F0.059718818521862505
sI7
F0.01160840964787824
sI8
F0.31226621952792466
sI9
F0.08590223139429898
sI10
F0.026312395201857346
sI11
F0.002192699600154779
sI12
F0.07003740487553205
sI13
F0.00980265703598607
sI14
F0.022958854636914744
sI15
F0.017928543789500838
sI16
F0.018702437766026054
sI17
F0.032503547014059074
sI18
F0.049400232168192955
sI19
F0.0096736747065652
sI20
F0.09738165871275635
sa(dp75
I0
F0.009415710047723461
sI1
F0.07106926351089901
sI2
F0.47091448471559394
sI3
F0.1981168579904553
sI4
F0.003740487553205211
sI5
F0.09880046433638591
sI6
F0.03121372371985038
sI7
F0.02166903134270605
sI8
F0.0019347349413130401
sI9
F0.005675222494518251
sI10
F0.005159293176834774
sI11
F0.002966593576679995
sI12
F0.04179027473236167
sI13
F0.0016767702824713015
sI14
F0.0018057526118921707
sI15
F0.0014188056236295627
sI16
F0.000773893976525216
sI17
F0.0024506642589965173
sI18
F0.002708628917838256
sI19
F0.0028376112472591254
sI20
F0.02386173094286083
sa(dp76
I0
F0.006578098800464336
sI1
F0.0012898232942086935
sI2
F0.001547787953050432
sI3
F0.0005159293176834773
sI4
F0.001160840964787824
sI5
F0.0006449116471043467
sI6
F0.000386946988262608
sI7
F0.0006449116471043467
sI8
F0.952663485102541
sI9
F0.004901328517993035
sI10
F0.0016767702824713015
sI11
F0.0016767702824713015
sI12
F0.0005159293176834773
sI13
F0.005159293176834774
sI14
F0.0019347349413130401
sI15
F0.004643363859151296
sI16
F0.0020637172707339093
sI17
F0.0014188056236295627
sI18
F0.0019347349413130401
sI19
F0.0019347349413130401
sI20
F0.006707081129885206
sa(dp77
I0
F0.08873984264155811
sI1
F0.21733522507416483
sI2
F0.17889849090674578
sI3
F0.23719850380497873
sI4
F0.0006449116471043467
sI5
F0.2086934090029666
sI6
F0.0016767702824713015
sI7
F0.04140332774409906
sI8
F0.0019347349413130401
sI9
F0.004385399200309558
sI10
F0.0024506642589965173
sI11
F0.0032245582355217334
sI12
F0.002579646588417387
sI13
F0.00025796465884173866
sI14
F0.000386946988262608
sI15
F0.000773893976525216
sI16
F0.0010318586353669547
sI17
F0.001160840964787824
sI18
F0.0005159293176834773
sI19
F0.0005159293176834773
sI20
F0.006191151812201728
sa(dp78
I0
F0.05043209080355991
sI1
F0.06861859925190249
sI2
F0.02992390042564169
sI3
F0.024506642589965176
sI4
F0.0034825228943634722
sI5
F0.015477879530504321
sI6
F0.0014188056236295627
sI7
F0.01896040242486779
sI8
F0.03688894621436863
sI9
F0.159938088481878
sI10
F0.15361795434025538
sI11
F0.005159293176834774
sI12
F0.024764607248806914
sI13
F0.043853992003095574
sI14
F0.08848187798271637
sI15
F0.01560686185992519
sI16
F0.09312524184186767
sI17
F0.045401779956146006
sI18
F0.09248033019476332
sI19
F0.01896040242486779
sI20
F0.008899780730039985
sa(dp79
I0
F0.026054430543015608
sI1
F0.21449761382690571
sI2
F0.2529343479943248
sI3
F0.2570617825357926
sI4
F0.040242486779311235
sI5
F0.06294337675738423
sI6
F0.00399845221204695
sI7
F0.042822133367728624
sI8
F0.03792080484973558
sI9
F0.008899780730039985
sI10
F0.0159938088481878
sI11
F0.0020637172707339093
sI12
F0.013930091577453889
sI13
F0.001160840964787824
sI14
F0.0028376112472591254
sI15
F0.0006449116471043467
sI16
F0.0009028763059460854
sI17
F0.0014188056236295627
sI18
F0.002579646588417387
sI19
F0.0009028763059460854
sI20
F0.010189604024248677
sa(dp80
I0
F0.0950599767831807
sI1
F0.08564426673545725
sI2
F0.023603766284019088
sI3
F0.028247130143170384
sI4
F0.004514381529730427
sI5
F0.011479427318457372
sI6
F0.006449116471043467
sI7
F0.010705533341932156
sI8
F0.06358828840448859
sI9
F0.08487037275893203
sI10
F0.08087192054688508
sI11
F0.006578098800464336
sI12
F0.014961950212820844
sI13
F0.027989165484328647
sI14
F0.14871662582226236
sI15
F0.03598606990842255
sI16
F0.053785631368502514
sI17
F0.06977944021669032
sI18
F0.11079582097252677
sI19
F0.020895137366180833
sI20
F0.015477879530504321
sa(dp81
I0
F0.04862633819166774
sI1
F0.027473236166645168
sI2
F0.026312395201857346
sI3
F0.026699342190119952
sI4
F0.07339094544047466
sI5
F0.010705533341932156
sI6
F0.006449116471043467
sI7
F0.040629433767573844
sI8
F0.19760092867277182
sI9
F0.08009802657035986
sI10
F0.0647491293692764
sI11
F0.003095575906100864
sI12
F0.014703985553979105
sI13
F0.04411195666193731
sI14
F0.03908164581452341
sI15
F0.10099316393654069
sI16
F0.09596285308912679
sI17
F0.03714691087321037
sI18
F0.032245582355217337
sI19
F0.00593318715335999
sI20
F0.023990713272281698
sa(dp82
I0
F0.03895266348510254
sI1
F0.10653940410163808
sI2
F0.1249838772088224
sI3
F0.06320134141622598
sI4
F0.030826776731587773
sI5
F0.0079969044240939
sI6
F0.0005159293176834773
sI7
F0.014961950212820844
sI8
F0.18534760737778924
sI9
F0.04088739842641558
sI10
F0.028118147813749515
sI11
F0.002192699600154779
sI12
F0.01573584418934606
sI13
F0.03740487553205211
sI14
F0.026441377531278214
sI15
F0.06913452856958596
sI16
F0.07622855668773378
sI17
F0.03482522894363472
sI18
F0.034438281955372116
sI19
F0.008899780730039985
sI20
F0.052366825744872954
sa(dp83
I0
F0.05597833096865729
sI1
F0.030310847413904295
sI2
F0.023603766284019088
sI3
F0.01960531407197214
sI4
F0.0386946988262608
sI5
F0.010060621694827809
sI6
F0.002966593576679995
sI7
F0.006320134141622598
sI8
F0.0626854120985425
sI9
F0.0920933832065007
sI10
F0.1484586611634206
sI11
F0.0036115052237843414
sI12
F0.016767702824713016
sI13
F0.08061395588804333
sI14
F0.033664387978846896
sI15
F0.11144073261963111
sI16
F0.06449116471043467
sI17
F0.08138784986456855
sI18
F0.051334967109506
sI19
F0.009415710047723461
sI20
F0.05649426028634077
sa(dp84
I0
F0.06023474783954598
sI1
F0.028376112472591256
sI2
F0.01779956146007997
sI3
F0.010963498000773893
sI4
F0.08525731974719464
sI5
F0.004385399200309558
sI6
F0.006836063459306075
sI7
F0.00580420482393912
sI8
F0.11221462659615633
sI9
F0.062298465110279894
sI10
F0.030439829743325163
sI11
F0.003353540564942603
sI12
F0.006707081129885206
sI13
F0.05094802012124339
sI14
F0.03327744099058429
sI15
F0.16922481620018057
sI16
F0.10176705791306591
sI17
F0.042177221720624276
sI18
F0.025925448213594736
sI19
F0.00980265703598607
sI20
F0.13220688765639108
sa(dp85
I0
F0.04514381529730427
sI1
F0.020895137366180833
sI2
F0.0290210241196956
sI3
F0.01186637430671998
sI4
F0.018573455436605185
sI5
F0.019089384754288664
sI6
F0.0012898232942086935
sI7
F0.007094028118147814
sI8
F0.06449116471043467
sI9
F0.057526118921707725
sI10
F0.051592931768347734
sI11
F0.005675222494518251
sI12
F0.01367212691861215
sI13
F0.034051334967109506
sI14
F0.03895266348510254
sI15
F0.09028763059460854
sI16
F0.10215400490132852
sI17
F0.02992390042564169
sI18
F0.028763059460853863
sI19
F0.015348897201083452
sI20
F0.3145879014575003
sa(dp86
I0
F0.028118147813749515
sI1
F0.036244034567264286
sI2
F0.0917064362182381
sI3
F0.04927124983877209
sI4
F0.03753385786147298
sI5
F0.007480975106410422
sI6
F0.000386946988262608
sI7
F0.017025667483554753
sI8
F0.052366825744872954
sI9
F0.030826776731587773
sI10
F0.02334580162517735
sI11
F0.004514381529730427
sI12
F0.005288275506255643
sI13
F0.028118147813749515
sI14
F0.0273442538372243
sI15
F0.03185863536695473
sI16
F0.03353540564942603
sI17
F0.018573455436605185
sI18
F0.02282987230749387
sI19
F0.007480975106410422
sI20
F0.446149877466787
sa(dp87
I0
F0.04514381529730427
sI1
F0.030697794402166904
sI2
F0.022313942989810397
sI3
F0.016638720495292143
sI4
F0.05726815426286599
sI5
F0.002579646588417387
sI6
F0.000773893976525216
sI7
F0.005159293176834774
sI8
F0.024248677931123435
sI9
F0.03134270604927125
sI10
F0.03353540564942603
sI11
F0.001547787953050432
sI12
F0.0024506642589965173
sI13
F0.018573455436605185
sI14
F0.0273442538372243
sI15
F0.059331871533599895
sI16
F0.028247130143170384
sI17
F0.02540951889591126
sI18
F0.01999226106023475
sI19
F0.0069650457887269444
sI20
F0.5404359602734425
sa(dp88
I0
F0.03675996388494776
sI1
F0.03134270604927125
sI2
F0.0399845221204695
sI3
F0.020121243389655617
sI4
F0.04372500967367471
sI5
F0.006578098800464336
sI6
F0.0006449116471043467
sI7
F0.02128208435444344
sI8
F0.05778408358054946
sI9
F0.051334967109506
sI10
F0.043982974332516446
sI11
F0.0036115052237843414
sI12
F0.013930091577453889
sI13
F0.03521217593189733
sI14
F0.051721914097768606
sI15
F0.042822133367728624
sI16
F0.060492712498387724
sI17
F0.07313298078163291
sI18
F0.057913065909970335
sI19
F0.019089384754288664
sI20
F0.2885334709144847
sa(dp89
I0
F0.03340642332000516
sI1
F0.016767702824713016
sI2
F0.026699342190119952
sI3
F0.008254869082935637
sI4
F0.09892944666580679
sI5
F0.020121243389655617
sI6
F0.0019347349413130401
sI7
F0.006578098800464336
sI8
F0.4919386044111957
sI9
F0.030181865084483426
sI10
F0.03379337030826777
sI11
F0.008383851412356508
sI12
F0.032890494002321684
sI13
F0.015477879530504321
sI14
F0.020766155036759965
sI15
F0.02373274861343996
sI16
F0.02347478395459822
sI17
F0.03276151167290081
sI18
F0.03572810524958081
sI19
F0.0159938088481878
sI20
F0.022184960660389528
sa(dp90
I0
F0.1687088868824971
sI1
F0.2579646588417387
sI2
F0.16432348768218755
sI3
F0.18779827163678575
sI4
F0.03856571649683993
sI5
F0.015090932542241713
sI6
F0.005159293176834774
sI7
F0.011995356636140849
sI8
F0.01160840964787824
sI9
F0.008254869082935637
sI10
F0.033922352637688634
sI11
F0.013285179930349542
sI12
F0.009157745388881724
sI13
F0.005675222494518251
sI14
F0.020766155036759965
sI15
F0.001547787953050432
sI16
F0.005417257835676512
sI17
F0.001160840964787824
sI18
F0.0032245582355217334
sI19
F0.020766155036759965
sI20
F0.01560686185992519
sa(dp91
I0
F0.023087836966335613
sI1
F0.17593189733006578
sI2
F0.17593189733006578
sI3
F0.08487037275893203
sI4
F0.0028376112472591254
sI5
F0.12330710692635109
sI6
F0.005288275506255643
sI7
F0.020637172707339096
sI8
F0.002192699600154779
sI9
F0.011995356636140849
sI10
F0.06977944021669032
sI11
F0.0038694698826260802
sI12
F0.11092480330194764
sI13
F0.002192699600154779
sI14
F0.0323745646846382
sI15
F0.0020637172707339093
sI16
F0.02540951889591126
sI17
F0.06126660647491294
sI18
F0.04191925706178254
sI19
F0.009544692377144332
sI20
F0.014575003224558236
sa(dp92
I0
F0.0096736747065652
sI1
F0.5635237972397782
sI2
F0.04346704501483297
sI3
F0.3558622468721785
sI4
F0.0006449116471043467
sI5
F0.004127434541467819
sI6
F0.00012898232942086933
sI7
F0.0020637172707339093
sI8
F0.0016767702824713015
sI9
F0.002192699600154779
sI10
F0.002966593576679995
sI11
F0.0009028763059460854
sI12
F0.0009028763059460854
sI13
F0.001547787953050432
sI14
F0.0012898232942086935
sI15
F0.0016767702824713015
sI16
F0.001547787953050432
sI17
F0.000773893976525216
sI18
F0.0010318586353669547
sI19
F0.000386946988262608
sI20
F0.0036115052237843414
sa(dp93
I0
F0.12678962982071457
sI1
F0.11724493744357023
sI2
F0.03650199922610602
sI3
F0.06384625306333032
sI4
F0.002708628917838256
sI5
F0.004385399200309558
sI6
F0.0038694698826260802
sI7
F0.0159938088481878
sI8
F0.04514381529730427
sI9
F0.15219914871662582
sI10
F0.1294982587385528
sI11
F0.010189604024248677
sI12
F0.007223010447568683
sI13
F0.026183412872436477
sI14
F0.0450148329678834
sI15
F0.031729653037533855
sI16
F0.03508319360247646
sI17
F0.07545466271120857
sI18
F0.052753772733135564
sI19
F0.01354314458919128
sI20
F0.004643363859151296
sa(dp94
I0
F0.08796594866503289
sI1
F0.00786792209467303
sI2
F0.01160840964787824
sI3
F0.002966593576679995
sI4
F0.0036115052237843414
sI5
F0.014317038565716497
sI6
F0.002192699600154779
sI7
F0.006836063459306075
sI8
F0.07390687475815813
sI9
F0.16935379852960145
sI10
F0.04475686830904166
sI11
F0.0034825228943634722
sI12
F0.01367212691861215
sI13
F0.05146394943892687
sI14
F0.07184315748742422
sI15
F0.08616019605314072
sI16
F0.13452856958596673
sI17
F0.08577324906487811
sI18
F0.10421772217206243
sI19
F0.01896040242486779
sI20
F0.004514381529730427
sa(dp95
I0
F0.025280536566490392
sI1
F0.5450793241325939
sI2
F0.08590223139429898
sI3
F0.17735070295369534
sI4
F0.09248033019476332
sI5
F0.006320134141622598
sI6
F0.00025796465884173866
sI7
F0.012253321294982588
sI8
F0.003095575906100864
sI9
F0.006578098800464336
sI10
F0.021411066683864312
sI11
F0.004514381529730427
sI12
F0.0006449116471043467
sI13
F0.002192699600154779
sI14
F0.001160840964787824
sI15
F0.0028376112472591254
sI16
F0.0019347349413130401
sI17
F0.0036115052237843414
sI18
F0.0020637172707339093
sI19
F0.000386946988262608
sI20
F0.004643363859151296
sa(dp96
I0
F0.05288275506255643
sI1
F0.12124338965561718
sI2
F0.10421772217206243
sI3
F0.13053011737391979
sI4
F0.006836063459306075
sI5
F0.04101638075583645
sI6
F0.0014188056236295627
sI7
F0.03637301689668515
sI8
F0.018831420095446923
sI9
F0.04308009802657036
sI10
F0.07119824584031988
sI11
F0.000773893976525216
sI12
F0.033664387978846896
sI13
F0.024248677931123435
sI14
F0.04901328517993035
sI15
F0.07287501612279118
sI16
F0.09518895911260157
sI17
F0.042822133367728624
sI18
F0.028247130143170384
sI19
F0.013930091577453889
sI20
F0.01160840964787824
sa(dp97
I0
F0.08951373661808332
sI1
F0.01560686185992519
sI2
F0.012382303624403457
sI3
F0.005675222494518251
sI4
F0.32026312395201856
sI5
F0.0018057526118921707
sI6
F0.004901328517993035
sI7
F0.004385399200309558
sI8
F0.013027215271507804
sI9
F0.04604669160325035
sI10
F0.017025667483554753
sI11
F0.0009028763059460854
sI12
F0.004385399200309558
sI13
F0.017025667483554753
sI14
F0.029150006449116472
sI15
F0.07919515026441377
sI16
F0.15464981297562233
sI17
F0.09880046433638591
sI18
F0.045401779956146006
sI19
F0.015477879530504321
sI20
F0.024377660260544304
sa(dp98
I0
F0.018186508448342575
sI1
F0.003740487553205211
sI2
F0.006320134141622598
sI3
F0.002321681929575648
sI4
F0.0034825228943634722
sI5
F0.004772346188572166
sI6
F0.0009028763059460854
sI7
F0.002966593576679995
sI8
F0.46265961563265834
sI9
F0.02321681929575648
sI10
F0.013414162259770412
sI11
F0.0010318586353669547
sI12
F0.006836063459306075
sI13
F0.1320779053269702
sI14
F0.01560686185992519
sI15
F0.1770927382948536
sI16
F0.03856571649683993
sI17
F0.0353411582613182
sI18
F0.016767702824713016
sI19
F0.00980265703598607
sI20
F0.024893589578227782
sa(dp99
I0
F0.016767702824713016
sI1
F0.002966593576679995
sI2
F0.01160840964787824
sI3
F0.0010318586353669547
sI4
F0.0036115052237843414
sI5
F0.002966593576679995
sI6
F0.0009028763059460854
sI7
F0.008770798400619116
sI8
F0.3683735328260028
sI9
F0.44395717786663225
sI10
F0.0853863020766155
sI11
F0.004385399200309558
sI12
F0.00593318715335999
sI13
F0.0036115052237843414
sI14
F0.006320134141622598
sI15
F0.005417257835676512
sI16
F0.006707081129885206
sI17
F0.007609957435831291
sI18
F0.003095575906100864
sI19
F0.0012898232942086935
sI20
F0.009286727718302593
sa(dp100
I0
F0.1594221591641945
sI1
F0.034051334967109506
sI2
F0.040242486779311235
sI3
F0.0193473494131304
sI4
F0.5839030052882755
sI5
F0.002966593576679995
sI6
F0.0020637172707339093
sI7
F0.0079969044240939
sI8
F0.01573584418934606
sI9
F0.04153231007351993
sI10
F0.0073519927769895525
sI11
F0.003740487553205211
sI12
F0.0020637172707339093
sI13
F0.008383851412356508
sI14
F0.008383851412356508
sI15
F0.012640268283245196
sI16
F0.013930091577453889
sI17
F0.02347478395459822
sI18
F0.00593318715335999
sI19
F0.0006449116471043467
sI20
F0.006191151812201728
sa(dp101
I0
F0.8452212046949568
sI1
F0.017154649812975622
sI2
F0.011092480330194764
sI3
F0.010060621694827809
sI4
F0.004127434541467819
sI5
F0.008899780730039985
sI6
F0.0005159293176834773
sI7
F0.0020637172707339093
sI8
F0.03779182252031472
sI9
F0.03327744099058429
sI10
F0.0034825228943634722
sI11
F0.004901328517993035
sI12
F0.001160840964787824
sI13
F0.0012898232942086935
sI14
F0.0020637172707339093
sI15
F0.0016767702824713015
sI16
F0.003095575906100864
sI17
F0.006320134141622598
sI18
F0.002708628917838256
sI19
F0.0006449116471043467
sI20
F0.0024506642589965173
sa(dp102
I0
F0.27628014961950215
sI1
F0.010834515671353025
sI2
F0.011350444989036501
sI3
F0.007480975106410422
sI4
F0.0012898232942086935
sI5
F0.031729653037533855
sI6
F0.016251773507029537
sI7
F0.00980265703598607
sI8
F0.020637172707339096
sI9
F0.06023474783954598
sI10
F0.006320134141622598
sI11
F0.002966593576679995
sI12
F0.039468592802786015
sI13
F0.007094028118147814
sI14
F0.053914613697923386
sI15
F0.16767702824713016
sI16
F0.19760092867277182
sI17
F0.02992390042564169
sI18
F0.01173739197729911
sI19
F0.032116600025796464
sI20
F0.005288275506255643
sa(dp103
I0
F0.07906616793499291
sI1
F0.018702437766026054
sI2
F0.05855797755707468
sI3
F0.01354314458919128
sI4
F0.002708628917838256
sI5
F0.005030310847413904
sI6
F0.0006449116471043467
sI7
F0.010576551012511285
sI8
F0.025925448213594736
sI9
F0.032245582355217337
sI10
F0.02282987230749387
sI11
F0.004514381529730427
sI12
F0.005417257835676512
sI13
F0.027473236166645168
sI14
F0.08009802657035986
sI15
F0.03379337030826777
sI16
F0.08396749645298594
sI17
F0.27331355604282215
sI18
F0.20095446923771443
sI19
F0.012382303624403457
sI20
F0.008254869082935637
sa(dp104
I0
F0.5357925964142912
sI1
F0.03598606990842255
sI2
F0.019218367083709532
sI3
F0.012382303624403457
sI4
F0.0019347349413130401
sI5
F0.002192699600154779
sI6
F0.00025796465884173866
sI7
F0.004901328517993035
sI8
F0.04604669160325035
sI9
F0.10383077518379982
sI10
F0.02166903134270605
sI11
F0.02502257190764865
sI12
F0.004643363859151296
sI13
F0.020508190377918224
sI14
F0.021024119695601702
sI15
F0.06758674061653554
sI16
F0.01986327873081388
sI17
F0.0319876176963756
sI18
F0.013930091577453889
sI19
F0.006836063459306075
sI20
F0.004385399200309558
sa(dp105
I0
F0.010189604024248677
sI1
F0.0019347349413130401
sI2
F0.003353540564942603
sI3
F0.0019347349413130401
sI4
F0.003740487553205211
sI5
F0.0019347349413130401
sI6
F0.000773893976525216
sI7
F0.000773893976525216
sI8
F0.823294208693409
sI9
F0.012640268283245196
sI10
F0.005159293176834774
sI11
F0.0009028763059460854
sI12
F0.0006449116471043467
sI13
F0.01754159680123823
sI14
F0.01186637430671998
sI15
F0.0193473494131304
sI16
F0.014188056236295628
sI17
F0.02334580162517735
sI18
F0.015090932542241713
sI19
F0.003353540564942603
sI20
F0.027989165484328647
sa(dp106
I0
F0.003353540564942603
sI1
F0.09222236553592159
sI2
F0.5753901715464981
sI3
F0.26660647491293693
sI4
F0.0012898232942086935
sI5
F0.022313942989810397
sI6
F0.000386946988262608
sI7
F0.03147168837869212
sI8
F0.0006449116471043467
sI9
F0.000773893976525216
sI10
F0.0005159293176834773
sI11
F0.00025796465884173866
sI12
F0.000386946988262608
sI13
F0.000386946988262608
sI14
F0.000386946988262608
sI15
F0.000386946988262608
sI16
F0.00025796465884173866
sI17
F0.0006449116471043467
sI18
F0.000386946988262608
sI19
F0.00012898232942086933
sI20
F0.0018057526118921707
sa(dp107
I0
F0.029150006449116472
sI1
F0.016509738165871275
sI2
F0.0647491293692764
sI3
F0.009286727718302593
sI4
F0.006191151812201728
sI5
F0.00593318715335999
sI6
F0.0014188056236295627
sI7
F0.01754159680123823
sI8
F0.008254869082935637
sI9
F0.030568812072746032
sI10
F0.01367212691861215
sI11
F0.014961950212820844
sI12
F0.006836063459306075
sI13
F0.015090932542241713
sI14
F0.1867664130014188
sI15
F0.010060621694827809
sI16
F0.06526505868695989
sI17
F0.24235779698181348
sI18
F0.2245582355217335
sI19
F0.02927898877853734
sI20
F0.001547787953050432
sa(dp108
I0
F0.1986327873081388
sI1
F0.1484586611634206
sI2
F0.021798013672126918
sI3
F0.04914226750935122
sI4
F0.1892170772604153
sI5
F0.006320134141622598
sI6
F0.0005159293176834773
sI7
F0.005546240165097382
sI8
F0.0096736747065652
sI9
F0.06552302334580162
sI10
F0.04372500967367471
sI11
F0.005030310847413904
sI12
F0.0024506642589965173
sI13
F0.010189604024248677
sI14
F0.03301947633174255
sI15
F0.012640268283245196
sI16
F0.08345156713530247
sI17
F0.051721914097768606
sI18
F0.05997678318070424
sI19
F0.0018057526118921707
sI20
F0.001160840964787824
sa(dp109
I0
F0.00593318715335999
sI1
F0.0005159293176834773
sI2
F0.00399845221204695
sI3
F0.00025796465884173866
sI4
F0.0006449116471043467
sI5
F0.003095575906100864
sI6
F0.0024506642589965173
sI7
F0.0016767702824713015
sI8
F0.8280665548819812
sI9
F0.004772346188572166
sI10
F0.0006449116471043467
sI11
F0.0020637172707339093
sI12
F0.007480975106410422
sI13
F0.05417257835676512
sI14
F0.010576551012511285
sI15
F0.026441377531278214
sI16
F0.013285179930349542
sI17
F0.015090932542241713
sI18
F0.012898232942086934
sI19
F0.004514381529730427
sI20
F0.0014188056236295627
sa(dp110
I0
F0.009286727718302593
sI1
F0.0036115052237843414
sI2
F0.0020637172707339093
sI3
F0.0009028763059460854
sI4
F0.0005159293176834773
sI5
F0.00399845221204695
sI6
F0.000386946988262608
sI7
F0.009415710047723461
sI8
F0.002708628917838256
sI9
F0.007480975106410422
sI10
F0.0038694698826260802
sI11
F0.002966593576679995
sI12
F0.002579646588417387
sI13
F0.005159293176834774
sI14
F0.008512833741777377
sI15
F0.9124209983232298
sI16
F0.010318586353669548
sI17
F0.0009028763059460854
sI18
F0.0006449116471043467
sI19
F0.011479427318457372
sI20
F0.000773893976525216
sa(dp111
I0
F0.014446020895137366
sI1
F0.2582226235005804
sI2
F0.07106926351089901
sI3
F0.17438410937701534
sI4
F0.000386946988262608
sI5
F0.01354314458919128
sI6
F0.004514381529730427
sI7
F0.01186637430671998
sI8
F0.000773893976525216
sI9
F0.005546240165097382
sI10
F0.022442925319231265
sI11
F0.00786792209467303
sI12
F0.022571907648652134
sI13
F0.003095575906100864
sI14
F0.08306462014703986
sI15
F0.001160840964787824
sI16
F0.08951373661808332
sI17
F0.05662324261576164
sI18
F0.1443312266219528
sI19
F0.01354314458919128
sI20
F0.0010318586353669547
sa(dp112
I0
F0.001547787953050432
sI1
F0.13143299367986586
sI2
F0.18070424351863795
sI3
F0.6735457242357797
sI4
F0.00012898232942086933
sI5
F0.004385399200309558
sI6
F0.000773893976525216
sI7
F0.0036115052237843414
sI8
F0.00025796465884173866
sI9
F0.00012898232942086933
sI10
F0.00025796465884173866
sI11
F0.000386946988262608
sI12
F0.0005159293176834773
sI13
F0.00012898232942086933
sI14
F0.00025796465884173866
sI15
F0.00012898232942086933
sI16
F0.00012898232942086933
sI17
F0.00025796465884173866
sI18
F0.00025796465884173866
sI19
F0.00012898232942086933
sI20
F0.0010318586353669547
sa(dp113
I0
F0.010318586353669548
sI1
F0.2330710692635109
sI2
F0.35225074164839415
sI3
F0.14716883786921192
sI4
F0.000386946988262608
sI5
F0.004385399200309558
sI6
F0.0016767702824713015
sI7
F0.020895137366180833
sI8
F0.000773893976525216
sI9
F0.010189604024248677
sI10
F0.1363343221978589
sI11
F0.005675222494518251
sI12
F0.009028763059460853
sI13
F0.0010318586353669547
sI14
F0.013414162259770412
sI15
F0.001547787953050432
sI16
F0.018186508448342575
sI17
F0.012511285953824326
sI18
F0.015219914871662582
sI19
F0.003353540564942603
sI20
F0.002579646588417387
sa(dp114
I0
F0.22184960660389527
sI1
F0.004385399200309558
sI2
F0.006191151812201728
sI3
F0.001160840964787824
sI4
F0.000386946988262608
sI5
F0.006836063459306075
sI6
F0.0018057526118921707
sI7
F0.012124338965561718
sI8
F0.04514381529730427
sI9
F0.17361021540049013
sI10
F0.026828324519540824
sI11
F0.002708628917838256
sI12
F0.00580420482393912
sI13
F0.014317038565716497
sI14
F0.062298465110279894
sI15
F0.011479427318457372
sI16
F0.1683219398942345
sI17
F0.1560686185992519
sI18
F0.05739713659228686
sI19
F0.01986327873081388
sI20
F0.0014188056236295627
sa(dp115
I0
F0.043596027344253836
sI1
F0.43776602605443055
sI2
F0.07919515026441377
sI3
F0.34605958983619245
sI4
F0.000773893976525216
sI5
F0.05081903779182252
sI6
F0.005417257835676512
sI7
F0.014961950212820844
sI8
F0.000386946988262608
sI9
F0.0012898232942086935
sI10
F0.002321681929575648
sI11
F0.004643363859151296
sI12
F0.009157745388881724
sI13
F0.000386946988262608
sI14
F0.00025796465884173866
sI15
F0.00012898232942086933
sI16
F0.0005159293176834773
sI17
F0.00025796465884173866
sI18
F0.00025796465884173866
sI19
F0.0005159293176834773
sI20
F0.0012898232942086935
sa(dp116
I0
F0.038823681155681675
sI1
F0.0005159293176834773
sI2
F0.0005159293176834773
sI3
F0.0006449116471043467
sI4
F0.00025796465884173866
sI5
F0.00025796465884173866
sI6
F0.00012898232942086933
sI7
F0.00012898232942086933
sI8
F0.08706307235908681
sI9
F0.0079969044240939
sI10
F0.0012898232942086935
sI11
F0.004643363859151296
sI12
F0.0005159293176834773
sI13
F0.5134786534244808
sI14
F0.009415710047723461
sI15
F0.29227395846768994
sI16
F0.028247130143170384
sI17
F0.00399845221204695
sI18
F0.004772346188572166
sI19
F0.0018057526118921707
sI20
F0.0032245582355217334
sa(dp117
I0
F0.008512833741777377
sI1
F0.0009028763059460854
sI2
F0.002321681929575648
sI3
F0.00025796465884173866
sI4
F0.0014188056236295627
sI5
F0.0010318586353669547
sI6
F0.000386946988262608
sI7
F0.000773893976525216
sI8
F0.6200180575261189
sI9
F0.02502257190764865
sI10
F0.008125886753514769
sI11
F0.0010318586353669547
sI12
F0.003095575906100864
sI13
F0.07532568038178769
sI14
F0.047594479556300785
sI15
F0.12459693022055979
sI16
F0.028763059460853863
sI17
F0.01947633174255127
sI18
F0.018831420095446923
sI19
F0.00980265703598607
sI20
F0.002708628917838256
sa(dp118
I0
F0.02992390042564169
sI1
F0.12085644266735457
sI2
F0.02721527150780343
sI3
F0.07455178640526249
sI4
F0.0009028763059460854
sI5
F0.0077389397652521605
sI6
F0.003353540564942603
sI7
F0.01367212691861215
sI8
F0.005546240165097382
sI9
F0.022958854636914744
sI10
F0.10254095188959113
sI11
F0.00399845221204695
sI12
F0.01160840964787824
sI13
F0.02386173094286083
sI14
F0.13310976396233715
sI15
F0.02154004901328518
sI16
F0.12640268283245196
sI17
F0.16174384109377016
sI18
F0.07609957435831291
sI19
F0.02953695343737908
sI20
F0.0028376112472591254
sa(dp119
I0
F0.07377789242873727
sI1
F0.02553850122533213
sI2
F0.02347478395459822
sI3
F0.008899780730039985
sI4
F0.18547658970721012
sI5
F0.006449116471043467
sI6
F0.0006449116471043467
sI7
F0.0036115052237843414
sI8
F0.006836063459306075
sI9
F0.17296530375338579
sI10
F0.051592931768347734
sI11
F0.006707081129885206
sI12
F0.004127434541467819
sI13
F0.07300399845221205
sI14
F0.02154004901328518
sI15
F0.13659228685670063
sI16
F0.07300399845221205
sI17
F0.0719721398168451
sI18
F0.04643363859151296
sI19
F0.004127434541467819
sI20
F0.0032245582355217334
sa(dp120
I0
F0.028376112472591256
sI1
F0.41674190635882885
sI2
F0.14446020895137365
sI3
F0.21191796723848833
sI4
F0.0038694698826260802
sI5
F0.03327744099058429
sI6
F0.0009028763059460854
sI7
F0.032890494002321684
sI8
F0.001547787953050432
sI9
F0.005030310847413904
sI10
F0.0866761253708242
sI11
F0.016767702824713016
sI12
F0.00786792209467303
sI13
F0.000773893976525216
sI14
F0.000773893976525216
sI15
F0.0005159293176834773
sI16
F0.000773893976525216
sI17
F0.0010318586353669547
sI18
F0.0012898232942086935
sI19
F0.00025796465884173866
sI20
F0.004256416870888688
sa(dp121
I0
F0.08125886753514769
sI1
F0.0690055462401651
sI2
F0.038823681155681675
sI3
F0.032890494002321684
sI4
F0.014317038565716497
sI5
F0.008254869082935637
sI6
F0.0006449116471043467
sI7
F0.007609957435831291
sI8
F0.0273442538372243
sI9
F0.09686572939507287
sI10
F0.12059847800851284
sI11
F0.002966593576679995
sI12
F0.010963498000773893
sI13
F0.04694956790919644
sI14
F0.04694956790919644
sI15
F0.07468076873468335
sI16
F0.11144073261963111
sI17
F0.10318586353669547
sI18
F0.07906616793499291
sI19
F0.019089384754288664
sI20
F0.007094028118147814
sa(dp122
I0
F0.026699342190119952
sI1
F0.0034825228943634722
sI2
F0.008254869082935637
sI3
F0.002321681929575648
sI4
F0.006062169482780859
sI5
F0.002321681929575648
sI6
F0.005546240165097382
sI7
F0.004772346188572166
sI8
F0.26351089900683605
sI9
F0.12717657680897718
sI10
F0.06345930607506771
sI11
F0.0020637172707339093
sI12
F0.005288275506255643
sI13
F0.11053785631368503
sI14
F0.020379208048497355
sI15
F0.13310976396233715
sI16
F0.040242486779311235
sI17
F0.033664387978846896
sI18
F0.021024119695601702
sI19
F0.02128208435444344
sI20
F0.09880046433638591
sa(dp123
I0
F0.10924803301947633
sI1
F0.07429382174642074
sI2
F0.14213852702179802
sI3
F0.04372500967367471
sI4
F0.03779182252031472
sI5
F0.03688894621436863
sI6
F0.057139171933445115
sI7
F0.11814781374951631
sI8
F0.02373274861343996
sI9
F0.06642589965174771
sI10
F0.02940797110795821
sI11
F0.008770798400619116
sI12
F0.016251773507029537
sI13
F0.00786792209467303
sI14
F0.014317038565716497
sI15
F0.015090932542241713
sI16
F0.025667483554753
sI17
F0.05507545466271121
sI18
F0.015090932542241713
sI19
F0.006836063459306075
sI20
F0.09609183541854766
sa(dp124
I0
F0.06178253579259641
sI1
F0.01160840964787824
sI2
F0.012382303624403457
sI3
F0.005417257835676512
sI4
F0.04088739842641558
sI5
F0.002579646588417387
sI6
F0.0009028763059460854
sI7
F0.004127434541467819
sI8
F0.04140332774409906
sI9
F0.20456597446149877
sI10
F0.18573455436605185
sI11
F0.003353540564942603
sI12
F0.0032245582355217334
sI13
F0.05546240165097382
sI14
F0.03276151167290081
sI15
F0.10537856313685025
sI16
F0.04927124983877209
sI17
F0.04011350444989036
sI18
F0.0660389526634851
sI19
F0.009286727718302593
sI20
F0.06371727073390945
sa(dp125
I0
F0.05249580807429382
sI1
F0.057913065909970335
sI2
F0.14910357281052497
sI3
F0.038049787179156455
sI4
F0.02515155423706952
sI5
F0.030568812072746032
sI6
F0.002192699600154779
sI7
F0.012511285953824326
sI8
F0.019218367083709532
sI9
F0.043982974332516446
sI10
F0.035470140590739066
sI11
F0.002966593576679995
sI12
F0.028505094802012125
sI13
F0.024635624919386045
sI14
F0.044369921320779056
sI15
F0.10150909325422418
sI16
F0.06526505868695989
sI17
F0.014059073906874758
sI18
F0.028634077131432994
sI19
F0.161872823423191
sI20
F0.061524571133754674
sa(dp126
I0
F0.07777634464078421
sI1
F0.03675996388494776
sI2
F0.19901973429640138
sI3
F0.01367212691861215
sI4
F0.011092480330194764
sI5
F0.0290210241196956
sI6
F0.0014188056236295627
sI7
F0.01986327873081388
sI8
F0.02115310202502257
sI9
F0.07248806913452857
sI10
F0.0399845221204695
sI11
F0.0019347349413130401
sI12
F0.020895137366180833
sI13
F0.042048239391203404
sI14
F0.05817103056881207
sI15
F0.12446794789113891
sI16
F0.12924029407971108
sI17
F0.05120598478008513
sI18
F0.0319876176963756
sI19
F0.012898232942086934
sI20
F0.004901328517993035
sa(dp127
I0
F0.053914613697923386
sI1
F0.02773120082548691
sI2
F0.027989165484328647
sI3
F0.018831420095446923
sI4
F0.03650199922610602
sI5
F0.007480975106410422
sI6
F0.0006449116471043467
sI7
F0.010705533341932156
sI8
F0.014188056236295628
sI9
F0.04088739842641558
sI10
F0.042177221720624276
sI11
F0.0018057526118921707
sI12
F0.010576551012511285
sI13
F0.023087836966335613
sI14
F0.1518122017283632
sI15
F0.15619760092867277
sI16
F0.22597704114536307
sI17
F0.060105765510125114
sI18
F0.06874758158132335
sI19
F0.015219914871662582
sI20
F0.005417257835676512
sa(dp128
I0
F0.2814394427963369
sI1
F0.21320779053269703
sI2
F0.10112214626596157
sI3
F0.07313298078163291
sI4
F0.0073519927769895525
sI5
F0.043982974332516446
sI6
F0.00786792209467303
sI7
F0.012124338965561718
sI8
F0.015348897201083452
sI9
F0.025280536566490392
sI10
F0.026054430543015608
sI11
F0.007480975106410422
sI12
F0.018702437766026054
sI13
F0.026183412872436477
sI14
F0.016896685154133884
sI15
F0.00980265703598607
sI16
F0.01999226106023475
sI17
F0.023603766284019088
sI18
F0.057913065909970335
sI19
F0.0032245582355217334
sI20
F0.009286727718302593
sa(dp129
I0
F0.11930865471430414
sI1
F0.28659873597317165
sI2
F0.09647878240681027
sI3
F0.10408873984264155
sI4
F0.003353540564942603
sI5
F0.015348897201083452
sI6
F0.007480975106410422
sI7
F0.04230620405004514
sI8
F0.009544692377144332
sI9
F0.03495421127305559
sI10
F0.03495421127305559
sI11
F0.002966593576679995
sI12
F0.028763059460853863
sI13
F0.01573584418934606
sI14
F0.057526118921707725
sI15
F0.008641816071198245
sI16
F0.025796465884173867
sI17
F0.033922352637688634
sI18
F0.051592931768347734
sI19
F0.012124338965561718
sI20
F0.008512833741777377
sa(dp130
I0
F0.0837095317941442
sI1
F0.1140203792080485
sI2
F0.07003740487553205
sI3
F0.061653553463175546
sI4
F0.00580420482393912
sI5
F0.006191151812201728
sI6
F0.0020637172707339093
sI7
F0.012769250612666065
sI8
F0.022958854636914744
sI9
F0.07519669805236683
sI10
F0.03559912292015994
sI11
F0.0028376112472591254
sI12
F0.0036115052237843414
sI13
F0.05946085386302077
sI14
F0.06874758158132335
sI15
F0.09196440087707984
sI16
F0.1073132980781633
sI17
F0.09841351734812331
sI18
F0.0610086418160712
sI19
F0.014317038565716497
sI20
F0.002321681929575648
sa(dp131
I0
F0.14716883786921192
sI1
F0.053785631368502514
sI2
F0.21565845479169354
sI3
F0.08254869082935638
sI4
F0.0012898232942086935
sI5
F0.019218367083709532
sI6
F0.00593318715335999
sI7
F0.04888430285050948
sI8
F0.05081903779182252
sI9
F0.029150006449116472
sI10
F0.026570359860699083
sI11
F0.005546240165097382
sI12
F0.025925448213594736
sI13
F0.012769250612666065
sI14
F0.03650199922610602
sI15
F0.016638720495292143
sI16
F0.04823939120340513
sI17
F0.07171417515800335
sI18
F0.08551528440603637
sI19
F0.01173739197729911
sI20
F0.004385399200309558
sa(dp132
I0
F0.060492712498387724
sI1
F0.07919515026441377
sI2
F0.30323745646846384
sI3
F0.22146265961563266
sI4
F0.0024506642589965173
sI5
F0.03327744099058429
sI6
F0.0009028763059460854
sI7
F0.06719979362827293
sI8
F0.01160840964787824
sI9
F0.03327744099058429
sI10
F0.03469624661421385
sI11
F0.0019347349413130401
sI12
F0.015219914871662582
sI13
F0.020637172707339096
sI14
F0.01896040242486779
sI15
F0.018057526118921707
sI16
F0.021798013672126918
sI17
F0.01999226106023475
sI18
F0.021798013672126918
sI19
F0.004127434541467819
sI20
F0.0096736747065652
sa(dp133
I0
F0.06513607635753901
sI1
F0.020637172707339096
sI2
F0.057913065909970335
sI3
F0.018315490777763448
sI4
F0.005159293176834774
sI5
F0.008512833741777377
sI6
F0.0038694698826260802
sI7
F0.016767702824713016
sI8
F0.02373274861343996
sI9
F0.04991616148587644
sI10
F0.05739713659228686
sI11
F0.0028376112472591254
sI12
F0.02386173094286083
sI13
F0.021926996001547787
sI14
F0.06810266993421901
sI15
F0.017025667483554753
sI16
F0.027860183154907778
sI17
F0.21630336643879788
sI18
F0.25551399458274215
sI19
F0.02889204179027473
sI20
F0.010318586353669548
sa(dp134
I0
F0.10202502257190765
sI1
F0.008899780730039985
sI2
F0.010963498000773893
sI3
F0.006320134141622598
sI4
F0.042177221720624276
sI5
F0.0018057526118921707
sI6
F0.0006449116471043467
sI7
F0.006191151812201728
sI8
F0.23681155681671612
sI9
F0.08474139042951116
sI10
F0.038436734167419065
sI11
F0.003095575906100864
sI12
F0.005159293176834774
sI13
F0.05920288920417903
sI14
F0.0626854120985425
sI15
F0.041661292402940794
sI16
F0.0757126273700503
sI17
F0.11750290210241197
sI18
F0.07003740487553205
sI19
F0.013414162259770412
sI20
F0.012511285953824326
sa(dp135
I0
F0.1454920675867406
sI1
F0.07003740487553205
sI2
F0.04179027473236167
sI3
F0.04888430285050948
sI4
F0.1783825615890623
sI5
F0.0073519927769895525
sI6
F0.001160840964787824
sI7
F0.006320134141622598
sI8
F0.04553076228556688
sI9
F0.10795820972526764
sI10
F0.04746549722687992
sI11
F0.03418031729653038
sI12
F0.007609957435831291
sI13
F0.02953695343737908
sI14
F0.027473236166645168
sI15
F0.024506642589965176
sI16
F0.054301560686185996
sI17
F0.06797368760479815
sI18
F0.018444473107184316
sI19
F0.017154649812975622
sI20
F0.018444473107184316
sa(dp136
I0
F0.05597833096865729
sI1
F0.03482522894363472
sI2
F0.013414162259770412
sI3
F0.011092480330194764
sI4
F0.10782922739584677
sI5
F0.0034825228943634722
sI6
F0.000386946988262608
sI7
F0.002708628917838256
sI8
F0.34644653682445503
sI9
F0.053140719721398166
sI10
F0.032116600025796464
sI11
F0.0038694698826260802
sI12
F0.0028376112472591254
sI13
F0.032116600025796464
sI14
F0.025280536566490392
sI15
F0.04050045143815297
sI16
F0.051979878756610344
sI17
F0.10228298723074938
sI18
F0.04733651489745905
sI19
F0.006707081129885206
sI20
F0.025667483554753
sa(dp137
I0
F0.04127434541467819
sI1
F0.012640268283245196
sI2
F0.0073519927769895525
sI3
F0.008641816071198245
sI4
F0.03508319360247646
sI5
F0.0020637172707339093
sI6
F0.0014188056236295627
sI7
F0.003353540564942603
sI8
F0.23436089255771958
sI9
F0.06952147555784857
sI10
F0.043596027344253836
sI11
F0.001547787953050432
sI12
F0.003095575906100864
sI13
F0.0719721398168451
sI14
F0.04295111569714949
sI15
F0.12730555913839803
sI16
F0.0727460337933703
sI17
F0.07829227395846769
sI18
F0.047981426544563395
sI19
F0.009544692377144332
sI20
F0.08525731974719464
sa(dp138
I0
F0.04527279762672514
sI1
F0.06281439442796337
sI2
F0.018573455436605185
sI3
F0.021798013672126918
sI4
F0.08216174384109377
sI5
F0.0077389397652521605
sI6
F0.0024506642589965173
sI7
F0.010318586353669548
sI8
F0.01380110924803302
sI9
F0.10757126273700503
sI10
F0.1467818908809493
sI11
F0.0036115052237843414
sI12
F0.005159293176834774
sI13
F0.033664387978846896
sI14
F0.05249580807429382
sI15
F0.02953695343737908
sI16
F0.10176705791306591
sI17
F0.14278343866890236
sI18
F0.061137624145492064
sI19
F0.019218367083709532
sI20
F0.03134270604927125
sa(dp139
I0
F0.060492712498387724
sI1
F0.4660131561976009
sI2
F0.1872823423191023
sI3
F0.16767702824713016
sI4
F0.0036115052237843414
sI5
F0.016251773507029537
sI6
F0.002579646588417387
sI7
F0.018315490777763448
sI8
F0.0019347349413130401
sI9
F0.006836063459306075
sI10
F0.02115310202502257
sI11
F0.004385399200309558
sI12
F0.0018057526118921707
sI13
F0.0012898232942086935
sI14
F0.0018057526118921707
sI15
F0.000386946988262608
sI16
F0.0018057526118921707
sI17
F0.002579646588417387
sI18
F0.0020637172707339093
sI19
F0.0016767702824713015
sI20
F0.030052882755062557
sa(dp140
I0
F0.04862633819166774
sI1
F0.060492712498387724
sI2
F0.05946085386302077
sI3
F0.021024119695601702
sI4
F0.0386946988262608
sI5
F0.004514381529730427
sI6
F0.0020637172707339093
sI7
F0.012511285953824326
sI8
F0.005417257835676512
sI9
F0.07532568038178769
sI10
F0.19115181220172836
sI11
F0.005417257835676512
sI12
F0.00593318715335999
sI13
F0.04011350444989036
sI14
F0.051721914097768606
sI15
F0.04153231007351993
sI16
F0.08396749645298594
sI17
F0.11518122017283632
sI18
F0.09106152457113376
sI19
F0.016767702824713016
sI20
F0.0290210241196956
sa(dp141
I0
F0.007094028118147814
sI1
F0.15284406036373016
sI2
F0.5525602992390043
sI3
F0.14123565071585192
sI4
F0.000386946988262608
sI5
F0.047981426544563395
sI6
F0.000773893976525216
sI7
F0.05223784341545208
sI8
F0.000386946988262608
sI9
F0.001160840964787824
sI10
F0.0018057526118921707
sI11
F0.0012898232942086935
sI12
F0.004127434541467819
sI13
F0.00012898232942086933
sI14
F0.0019347349413130401
sI15
F0.000386946988262608
sI16
F0.0005159293176834773
sI17
F0.0009028763059460854
sI18
F0.0018057526118921707
sI19
F0.00012898232942086933
sI20
F0.030310847413904295
sa(dp142
I0
F0.014575003224558236
sI1
F0.09144847155939637
sI2
F0.11492325551399458
sI3
F0.02721527150780343
sI4
F0.0010318586353669547
sI5
F0.005675222494518251
sI6
F0.0028376112472591254
sI7
F0.010576551012511285
sI8
F0.04295111569714949
sI9
F0.040629433767573844
sI10
F0.25770669418289693
sI11
F0.004514381529730427
sI12
F0.005030310847413904
sI13
F0.012898232942086934
sI14
F0.04488585063846253
sI15
F0.02540951889591126
sI16
F0.0866761253708242
sI17
F0.09402811814781376
sI18
F0.05262479040371469
sI19
F0.017928543789500838
sI20
F0.04643363859151296
sa(dp143
I0
F0.015348897201083452
sI1
F0.433380626854121
sI2
F0.12485489487940152
sI3
F0.2521604540177996
sI4
F0.000773893976525216
sI5
F0.024893589578227782
sI6
F0.003740487553205211
sI7
F0.006191151812201728
sI8
F0.00399845221204695
sI9
F0.0009028763059460854
sI10
F0.005030310847413904
sI11
F0.0012898232942086935
sI12
F0.03688894621436863
sI13
F0.00012898232942086933
sI14
F0.000386946988262608
sI15
F0.0006449116471043467
sI16
F0.000386946988262608
sI17
F0.0006449116471043467
sI18
F0.002966593576679995
sI19
F0.00025796465884173866
sI20
F0.08512833741777376
sa(dp144
I0
F0.010576551012511285
sI1
F0.018315490777763448
sI2
F0.06462014703985554
sI3
F0.016251773507029537
sI4
F0.00025796465884173866
sI5
F0.0038694698826260802
sI6
F0.003353540564942603
sI7
F0.015477879530504321
sI8
F0.002966593576679995
sI9
F0.01560686185992519
sI10
F0.0077389397652521605
sI11
F0.000386946988262608
sI12
F0.0069650457887269444
sI13
F0.010060621694827809
sI14
F0.07609957435831291
sI15
F0.006836063459306075
sI16
F0.06732877595769379
sI17
F0.04411195666193731
sI18
F0.09312524184186767
sI19
F0.004127434541467819
sI20
F0.5319231265316652
sasS'n_states'
p145
I21
sbsS'args'
p146
g4
(cargparse
Namespace
p147
g6
Ntp148
Rp149
(dp150
g3
S'../deepnet/datasets/PF00595/PF00595_test.npy'
p151
sS'nstates'
p152
I21
sg31
S'../deepnet/datasets/PF00595/PF00595_train.npy'
p153
sg44
S'../deepnet/datasets/PF00595/PF00595_valid.npy'
p154
sS'outf'
p155
S'PF00595.mult.pkl'
p156
sbs.