(dp0
S'metrics'
p1
(dp2
S'test'
p3
ccopy_reg
_reconstructor
p4
(c__main__
Metrics
p5
c__builtin__
object
p6
Ntp7
Rp8
(dp9
S'impute_accuracy'
p10
cnumpy.core.multiarray
scalar
p11
(cnumpy
dtype
p12
(S'f8'
p13
I0
I1
tp14
Rp15
(I3
S'<'
p16
NNNI-1
I-1
I0
tp17
bS'\xf0\x83\x87H\xd0G8@'
p18
tp19
Rp20
sS'cross_entropy'
p21
g11
(g15
S'\x88P\x14d\xd0bb@'
p22
tp23
Rp24
sS'logProb'
p25
g11
(g15
S'\x88P\x14d\xd0bb\xc0'
p26
tp27
Rp28
sS'pll'
p29
g28
sS'accuracy'
p30
g20
sbsS'train'
p31
g4
(g5
g6
Ntp32
Rp33
(dp34
g10
g11
(g15
S'\xbf\x95\x0cG\xae\xf67@'
p35
tp36
Rp37
sg21
g11
(g15
S'!\x82l\xec\x1e]b@'
p38
tp39
Rp40
sg25
g11
(g15
S'!\x82l\xec\x1e]b\xc0'
p41
tp42
Rp43
sg29
g43
sg30
g37
sbsS'valid'
p44
g4
(g5
g6
Ntp45
Rp46
(dp47
g10
g11
(g15
S'f\x8a\xd3e\x8a\xd37@'
p48
tp49
Rp50
sg21
g11
(g15
S'3\xee\xca3s\x81b@'
p51
tp52
Rp53
sg25
g11
(g15
S'3\xee\xca3s\x81b\xc0'
p54
tp55
Rp56
sg29
g56
sg30
g50
sbssS'model'
p57
g4
(c__main__
Multinomial
p58
g6
Ntp59
Rp60
(dp61
S'vmf'
p62
(lp63
(dp64
I0
F0.0021638330757341576
sI1
F0.005873261205564142
sI2
F0.0027820710973724882
sI3
F0.0009273570324574962
sI4
F0.0021638330757341576
sI5
F0.0009273570324574962
sI6
F0.0003091190108191654
sI7
F0.0015455950540958269
sI8
F0.0021638330757341576
sI9
F0.0030911901081916537
sI10
F0.005873261205564142
sI11
F0.0009273570324574962
sI12
F0.0006182380216383308
sI13
F0.004945904173106646
sI14
F0.0055641421947449764
sI15
F0.004327666151468315
sI16
F0.0061823802163833074
sI17
F0.26120556414219476
sI18
F0.08068006182380216
sI19
F0.0021638330757341576
sI20
F0.605564142194745
sa(dp65
I0
F0.023802163833075735
sI1
F0.01731066460587326
sI2
F0.03276661514683153
sI3
F0.009582689335394128
sI4
F0.0027820710973724882
sI5
F0.01792890262751159
sI6
F0.0018547140649149924
sI7
F0.015765069551777436
sI8
F0.013910355486862442
sI9
F0.04513137557959815
sI10
F0.1965996908809892
sI11
F0.012364760432766615
sI12
F0.00463678516228748
sI13
F0.03678516228748068
sI14
F0.005873261205564142
sI15
F0.02287480680061824
sI16
F0.0030911901081916537
sI17
F0.004327666151468315
sI18
F0.0071097372488408035
sI19
F0.00865533230293663
sI20
F0.5168469860896445
sa(dp66
I0
F0.017619783616692426
sI1
F0.025038639876352395
sI2
F0.23153013910355486
sI3
F0.02194744976816074
sI4
F0.05780525502318393
sI5
F0.031221020092735703
sI6
F0.0037094281298299847
sI7
F0.017001545595054096
sI8
F0.004327666151468315
sI9
F0.055950540958268936
sI10
F0.01143740340030912
sI11
F0.0037094281298299847
sI12
F0.011746522411128285
sI13
F0.0055641421947449764
sI14
F0.016383307573415766
sI15
F0.011746522411128285
sI16
F0.011746522411128285
sI17
F0.015765069551777436
sI18
F0.00927357032457496
sI19
F0.0055641421947449764
sI20
F0.4309119010819165
sa(dp67
I0
F0.027820710973724884
sI1
F0.005255023183925811
sI2
F0.01143740340030912
sI3
F0.0037094281298299847
sI4
F0.0071097372488408035
sI5
F0.0021638330757341576
sI6
F0.0080370942812983
sI7
F0.004945904173106646
sI8
F0.06924265842349304
sI9
F0.08160741885625966
sI10
F0.11746522411128284
sI11
F0.005873261205564142
sI12
F0.004945904173106646
sI13
F0.09922720247295208
sI14
F0.03987635239567233
sI15
F0.1044822256568779
sI16
F0.02534775888717156
sI17
F0.05873261205564142
sI18
F0.018856259659969087
sI19
F0.011128284389489953
sI20
F0.2927357032457496
sa(dp68
I0
F0.011128284389489953
sI1
F0.0021638330757341576
sI2
F0.00401854714064915
sI3
F0.0012364760432766616
sI4
F0.004327666151468315
sI5
F0.0012364760432766616
sI6
F0.0012364760432766616
sI7
F0.0018547140649149924
sI8
F0.4550231839258114
sI9
F0.03678516228748068
sI10
F0.0061823802163833074
sI11
F0.002472952086553323
sI12
F0.002472952086553323
sI13
F0.03462132921174652
sI14
F0.05069551777434312
sI15
F0.0482225656877898
sI16
F0.033693972179289024
sI17
F0.03647604327666151
sI18
F0.008346213292117466
sI19
F0.0071097372488408035
sI20
F0.2506955177743431
sa(dp69
I0
F0.023802163833075735
sI1
F0.015765069551777436
sI2
F0.009582689335394128
sI3
F0.0077279752704791345
sI4
F0.010819165378670788
sI5
F0.0055641421947449764
sI6
F0.0003091190108191654
sI7
F0.004327666151468315
sI8
F0.024420401854714065
sI9
F0.07418856259659969
sI10
F0.05842349304482226
sI11
F0.0009273570324574962
sI12
F0.0015455950540958269
sI13
F0.04389489953632148
sI14
F0.1035548686244204
sI15
F0.027202472952086554
sI16
F0.06862442040185471
sI17
F0.2160741885625966
sI18
F0.08284389489953632
sI19
F0.012364760432766615
sI20
F0.2080370942812983
sa(dp70
I0
F0.019783616692426585
sI1
F0.06522411128284389
sI2
F0.03647604327666151
sI3
F0.03802163833075734
sI4
F0.025656877897990725
sI5
F0.015765069551777436
sI6
F0.0030911901081916537
sI7
F0.0080370942812983
sI8
F0.0071097372488408035
sI9
F0.07666151468315302
sI10
F0.18979907264296755
sI11
F0.0080370942812983
sI12
F0.0061823802163833074
sI13
F0.01947449768160742
sI14
F0.021638330757341576
sI15
F0.04327666151468315
sI16
F0.08717156105100464
sI17
F0.10108191653786708
sI18
F0.03462132921174652
sI19
F0.02287480680061824
sI20
F0.17001545595054096
sa(dp71
I0
F0.016383307573415766
sI1
F0.09706336939721794
sI2
F0.08500772797527048
sI3
F0.17187017001545596
sI4
F0.0037094281298299847
sI5
F0.16136012364760433
sI6
F0.00927357032457496
sI7
F0.021020092735703245
sI8
F0.00463678516228748
sI9
F0.02194744976816074
sI10
F0.022565687789799074
sI11
F0.012364760432766615
sI12
F0.07666151468315302
sI13
F0.006491499227202473
sI14
F0.019165378670788255
sI15
F0.0021638330757341576
sI16
F0.022256568778979906
sI17
F0.019783616692426585
sI18
F0.022256568778979906
sI19
F0.06769706336939722
sI20
F0.13632148377125194
sa(dp72
I0
F0.04173106646058733
sI1
F0.05193199381761979
sI2
F0.02874806800618238
sI3
F0.025965996908809894
sI4
F0.07202472952086553
sI5
F0.03709428129829984
sI6
F0.0034003091190108192
sI7
F0.0061823802163833074
sI8
F0.0068006182380216385
sI9
F0.07511591962905718
sI10
F0.17712519319938178
sI11
F0.008346213292117466
sI12
F0.009891808346213293
sI13
F0.027202472952086554
sI14
F0.04080370942812983
sI15
F0.06398763523956723
sI16
F0.1125193199381762
sI17
F0.05038639876352396
sI18
F0.04111282843894899
sI19
F0.019165378670788255
sI20
F0.10046367851622875
sa(dp73
I0
F0.012364760432766615
sI1
F0.20680061823802165
sI2
F0.2871715610510046
sI3
F0.1975270479134467
sI4
F0.0015455950540958269
sI5
F0.09860896445131376
sI6
F0.0015455950540958269
sI7
F0.02751159196290572
sI8
F0.0003091190108191654
sI9
F0.005255023183925811
sI10
F0.01143740340030912
sI11
F0.0055641421947449764
sI12
F0.025038639876352395
sI13
F0.004327666151468315
sI14
F0.00401854714064915
sI15
F0.0015455950540958269
sI16
F0.0027820710973724882
sI17
F0.013910355486862442
sI18
F0.013601236476043277
sI19
F0.0018547140649149924
sI20
F0.07727975270479134
sa(dp74
I0
F0.02534775888717156
sI1
F0.022256568778979906
sI2
F0.013601236476043277
sI3
F0.0077279752704791345
sI4
F0.02534775888717156
sI5
F0.0055641421947449764
sI6
F0.0037094281298299847
sI7
F0.013292117465224112
sI8
F0.010819165378670788
sI9
F0.07449768160741886
sI10
F0.07480680061823802
sI11
F0.0030911901081916537
sI12
F0.00927357032457496
sI13
F0.0491499227202473
sI14
F0.05842349304482226
sI15
F0.14435857805255023
sI16
F0.20185471406491498
sI17
F0.11128284389489954
sI18
F0.09149922720247296
sI19
F0.021638330757341576
sI20
F0.03245749613601236
sa(dp75
I0
F0.05471406491499227
sI1
F0.40123647604327667
sI2
F0.14868624420401855
sI3
F0.16939721792890264
sI4
F0.0018547140649149924
sI5
F0.05656877897990727
sI6
F0.0009273570324574962
sI7
F0.027202472952086554
sI8
F0.00927357032457496
sI9
F0.005873261205564142
sI10
F0.01854714064914992
sI11
F0.05780525502318393
sI12
F0.010510046367851623
sI13
F0.0021638330757341576
sI14
F0.0027820710973724882
sI15
F0.0030911901081916537
sI16
F0.0018547140649149924
sI17
F0.0018547140649149924
sI18
F0.0012364760432766616
sI19
F0.0009273570324574962
sI20
F0.02349304482225657
sa(dp76
I0
F0.04605873261205564
sI1
F0.0080370942812983
sI2
F0.034312210200927354
sI3
F0.0012364760432766616
sI4
F0.1054095826893354
sI5
F0.013292117465224112
sI6
F0.0030911901081916537
sI7
F0.0080370942812983
sI8
F0.023183925811437404
sI9
F0.13323029366306027
sI10
F0.04173106646058733
sI11
F0.00927357032457496
sI12
F0.01205564142194745
sI13
F0.07109737248840804
sI14
F0.03523956723338485
sI15
F0.15734157650695518
sI16
F0.13323029366306027
sI17
F0.0794435857805255
sI18
F0.04605873261205564
sI19
F0.018856259659969087
sI20
F0.019783616692426585
sa(dp77
I0
F0.06553323029366306
sI1
F0.01792890262751159
sI2
F0.0973724884080371
sI3
F0.012982998454404947
sI4
F0.2605873261205564
sI5
F0.006491499227202473
sI6
F0.0015455950540958269
sI7
F0.0160741885625966
sI8
F0.04420401854714065
sI9
F0.10417310664605874
sI10
F0.03956723338485317
sI11
F0.00401854714064915
sI12
F0.0055641421947449764
sI13
F0.027202472952086554
sI14
F0.029675425038639878
sI15
F0.059969088098918086
sI16
F0.078516228748068
sI17
F0.05038639876352396
sI18
F0.05193199381761979
sI19
F0.0074188562596599695
sI20
F0.018856259659969087
sa(dp78
I0
F0.03585780525502318
sI1
F0.0055641421947449764
sI2
F0.01854714064914992
sI3
F0.0061823802163833074
sI4
F0.0055641421947449764
sI5
F0.012982998454404947
sI6
F0.004945904173106646
sI7
F0.0037094281298299847
sI8
F0.04204018547140649
sI9
F0.22380216383307575
sI10
F0.13230293663060277
sI11
F0.0080370942812983
sI12
F0.017001545595054096
sI13
F0.10973724884080371
sI14
F0.03802163833075734
sI15
F0.162596599690881
sI16
F0.0865533230293663
sI17
F0.027202472952086554
sI18
F0.016383307573415766
sI19
F0.0321483771251932
sI20
F0.010819165378670788
sa(dp79
I0
F0.12024729520865533
sI1
F0.010819165378670788
sI2
F0.03894899536321484
sI3
F0.04173106646058733
sI4
F0.0055641421947449764
sI5
F0.008346213292117466
sI6
F0.02751159196290572
sI7
F0.05224111282843895
sI8
F0.012982998454404947
sI9
F0.078516228748068
sI10
F0.1394126738794436
sI11
F0.016383307573415766
sI12
F0.009891808346213293
sI13
F0.023802163833075735
sI14
F0.04265842349304482
sI15
F0.22442040185471407
sI16
F0.10850077279752705
sI17
F0.013292117465224112
sI18
F0.011128284389489953
sI19
F0.0074188562596599695
sI20
F0.0061823802163833074
sa(dp80
I0
F0.010510046367851623
sI1
F0.0071097372488408035
sI2
F0.030602782071097373
sI3
F0.0068006182380216385
sI4
F0.05347758887171561
sI5
F0.004327666151468315
sI6
F0.0009273570324574962
sI7
F0.005255023183925811
sI8
F0.004327666151468315
sI9
F0.1465224111282844
sI10
F0.5619783616692426
sI11
F0.00401854714064915
sI12
F0.0027820710973724882
sI13
F0.023802163833075735
sI14
F0.015765069551777436
sI15
F0.01267387944358578
sI16
F0.0160741885625966
sI17
F0.062442040185471406
sI18
F0.02472952086553323
sI19
F0.0018547140649149924
sI20
F0.00401854714064915
sa(dp81
I0
F0.018856259659969087
sI1
F0.4871715610510046
sI2
F0.10880989180834622
sI3
F0.2800618238021638
sI4
F0.01143740340030912
sI5
F0.027202472952086554
sI6
F0.0012364760432766616
sI7
F0.01267387944358578
sI8
F0.027202472952086554
sI9
F0.0037094281298299847
sI10
F0.013910355486862442
sI11
F0.0006182380216383308
sI12
F0.0009273570324574962
sI13
F0.0006182380216383308
sI14
F0.0003091190108191654
sI15
F0.0003091190108191654
sI16
F0.0009273570324574962
sI17
F0.0003091190108191654
sI18
F0.0006182380216383308
sI19
F0.0009273570324574962
sI20
F0.0021638330757341576
sa(dp82
I0
F0.15115919629057187
sI1
F0.010819165378670788
sI2
F0.10200927357032458
sI3
F0.015765069551777436
sI4
F0.004945904173106646
sI5
F0.013601236476043277
sI6
F0.006491499227202473
sI7
F0.010819165378670788
sI8
F0.14837712519319937
sI9
F0.10602782071097372
sI10
F0.013910355486862442
sI11
F0.0027820710973724882
sI12
F0.02627511591962906
sI13
F0.012982998454404947
sI14
F0.04482225656877898
sI15
F0.03863987635239567
sI16
F0.13168469860896445
sI17
F0.08315301391035548
sI18
F0.06367851622874807
sI19
F0.010510046367851623
sI20
F0.0015455950540958269
sa(dp83
I0
F0.061205564142194746
sI1
F0.03493044822256569
sI2
F0.010819165378670788
sI3
F0.00865533230293663
sI4
F0.0003091190108191654
sI5
F0.0037094281298299847
sI6
F0.0009273570324574962
sI7
F0.009582689335394128
sI8
F0.015146831530139104
sI9
F0.07635239567233384
sI10
F0.05564142194744977
sI11
F0.0034003091190108192
sI12
F0.018856259659969087
sI13
F0.06615146831530139
sI14
F0.1026275115919629
sI15
F0.22905718701700153
sI16
F0.1731066460587326
sI17
F0.07727975270479134
sI18
F0.02936630602782071
sI19
F0.020401854714064915
sI20
F0.002472952086553323
sa(dp84
I0
F0.011746522411128285
sI1
F0.18639876352395673
sI2
F0.5579598145285936
sI3
F0.11684698608964451
sI4
F0.0009273570324574962
sI5
F0.09706336939721794
sI6
F0.0012364760432766616
sI7
F0.01267387944358578
sI8
F0.0015455950540958269
sI9
F0.0009273570324574962
sI10
F0.0030911901081916537
sI11
F0.0037094281298299847
sI12
F0.0003091190108191654
sI13
F0.0003091190108191654
sI14
F0.0018547140649149924
sI15
F0.0003091190108191654
sI16
F0.0003091190108191654
sI17
F0.0006182380216383308
sI18
F0.0003091190108191654
sI19
F0.0003091190108191654
sI20
F0.0015455950540958269
sa(dp85
I0
F0.009891808346213293
sI1
F0.009891808346213293
sI2
F0.020401854714064915
sI3
F0.02287480680061824
sI4
F0.0006182380216383308
sI5
F0.010819165378670788
sI6
F0.0006182380216383308
sI7
F0.03616692426584235
sI8
F0.0015455950540958269
sI9
F0.004327666151468315
sI10
F0.005255023183925811
sI11
F0.0018547140649149924
sI12
F0.0071097372488408035
sI13
F0.0034003091190108192
sI14
F0.0321483771251932
sI15
F0.0009273570324574962
sI16
F0.0030911901081916537
sI17
F0.751468315301391
sI18
F0.07078825347758887
sI19
F0.0055641421947449764
sI20
F0.0012364760432766616
sa(dp86
I0
F0.14064914992272023
sI1
F0.022565687789799074
sI2
F0.04111282843894899
sI3
F0.01205564142194745
sI4
F0.0030911901081916537
sI5
F0.0034003091190108192
sI6
F0.004945904173106646
sI7
F0.015146831530139104
sI8
F0.03245749613601236
sI9
F0.06027820710973725
sI10
F0.0482225656877898
sI11
F0.00401854714064915
sI12
F0.01143740340030912
sI13
F0.04791344667697063
sI14
F0.10788253477588872
sI15
F0.05564142194744977
sI16
F0.17557959814528593
sI17
F0.12457496136012365
sI18
F0.06646058732612056
sI19
F0.02009273570324575
sI20
F0.002472952086553323
sa(dp87
I0
F0.09613601236476044
sI1
F0.02812982998454405
sI2
F0.12982998454404945
sI3
F0.03647604327666151
sI4
F0.0006182380216383308
sI5
F0.014528593508500772
sI6
F0.0009273570324574962
sI7
F0.04574961360123648
sI8
F0.00401854714064915
sI9
F0.030293663060278208
sI10
F0.024420401854714065
sI11
F0.00463678516228748
sI12
F0.0160741885625966
sI13
F0.01143740340030912
sI14
F0.10973724884080371
sI15
F0.0068006182380216385
sI16
F0.04760432766615147
sI17
F0.2587326120556414
sI18
F0.09706336939721794
sI19
F0.03462132921174652
sI20
F0.0021638330757341576
sa(dp88
I0
F0.015455950540958269
sI1
F0.16568778979907264
sI2
F0.25471406491499227
sI3
F0.441112828438949
sI4
F0.0006182380216383308
sI5
F0.03616692426584235
sI6
F0.0003091190108191654
sI7
F0.011746522411128285
sI8
F0.0012364760432766616
sI9
F0.0030911901081916537
sI10
F0.004327666151468315
sI11
F0.012982998454404947
sI12
F0.04142194744976816
sI13
F0.0015455950540958269
sI14
F0.0006182380216383308
sI15
F0.0003091190108191654
sI16
F0.0003091190108191654
sI17
F0.0009273570324574962
sI18
F0.0006182380216383308
sI19
F0.0034003091190108192
sI20
F0.0034003091190108192
sa(dp89
I0
F0.18485316846986088
sI1
F0.018238021638330756
sI2
F0.023183925811437404
sI3
F0.0080370942812983
sI4
F0.0021638330757341576
sI5
F0.0553323029366306
sI6
F0.013910355486862442
sI7
F0.012982998454404947
sI8
F0.015455950540958269
sI9
F0.10602782071097372
sI10
F0.01731066460587326
sI11
F0.04605873261205564
sI12
F0.03493044822256569
sI13
F0.012364760432766615
sI14
F0.1418856259659969
sI15
F0.0074188562596599695
sI16
F0.18763523956723338
sI17
F0.030602782071097373
sI18
F0.03740340030911901
sI19
F0.03709428129829984
sI20
F0.0071097372488408035
sa(dp90
I0
F0.11715610510046368
sI1
F0.025038639876352395
sI2
F0.04080370942812983
sI3
F0.01267387944358578
sI4
F0.021638330757341576
sI5
F0.004945904173106646
sI6
F0.0015455950540958269
sI7
F0.0077279752704791345
sI8
F0.04049459041731066
sI9
F0.09520865533230294
sI10
F0.04667697063369397
sI11
F0.0037094281298299847
sI12
F0.00401854714064915
sI13
F0.03462132921174652
sI14
F0.08253477588871716
sI15
F0.10695517774343122
sI16
F0.17001545595054096
sI17
F0.09953632148377126
sI18
F0.0642967542503864
sI19
F0.010819165378670788
sI20
F0.009582689335394128
sa(dp91
I0
F0.06306027820710974
sI1
F0.05811437403400309
sI2
F0.121483771251932
sI3
F0.05564142194744977
sI4
F0.0074188562596599695
sI5
F0.00865533230293663
sI6
F0.0006182380216383308
sI7
F0.019165378670788255
sI8
F0.0055641421947449764
sI9
F0.04204018547140649
sI10
F0.025965996908809894
sI11
F0.005873261205564142
sI12
F0.012982998454404947
sI13
F0.017619783616692426
sI14
F0.0732612055641422
sI15
F0.022565687789799074
sI16
F0.12117465224111283
sI17
F0.19721792890262752
sI18
F0.09984544049459042
sI19
F0.02689335394126739
sI20
F0.014837712519319939
sa(dp92
I0
F0.03276661514683153
sI1
F0.05131375579598145
sI2
F0.10695517774343122
sI3
F0.04173106646058733
sI4
F0.006491499227202473
sI5
F0.06367851622874807
sI6
F0.022256568778979906
sI7
F0.0160741885625966
sI8
F0.013601236476043277
sI9
F0.05038639876352396
sI10
F0.20741885625965997
sI11
F0.02132921174652241
sI12
F0.0321483771251932
sI13
F0.010510046367851623
sI14
F0.05409582689335394
sI15
F0.01143740340030912
sI16
F0.14590417310664605
sI17
F0.05564142194744977
sI18
F0.022256568778979906
sI19
F0.016383307573415766
sI20
F0.017619783616692426
sa(dp93
I0
F0.018238021638330756
sI1
F0.0018547140649149924
sI2
F0.009891808346213293
sI3
F0.0034003091190108192
sI4
F0.0472952086553323
sI5
F0.002472952086553323
sI6
F0.0009273570324574962
sI7
F0.002472952086553323
sI8
F0.47264296754250384
sI9
F0.06275115919629057
sI10
F0.012982998454404947
sI11
F0.00401854714064915
sI12
F0.0012364760432766616
sI13
F0.08469860896445132
sI14
F0.05069551777434312
sI15
F0.05440494590417311
sI16
F0.03276661514683153
sI17
F0.06367851622874807
sI18
F0.03462132921174652
sI19
F0.02071097372488408
sI20
F0.018238021638330756
sa(dp94
I0
F0.02534775888717156
sI1
F0.22380216383307575
sI2
F0.12735703245749613
sI3
F0.28129829984544047
sI4
F0.0321483771251932
sI5
F0.0562596599690881
sI6
F0.01143740340030912
sI7
F0.018856259659969087
sI8
F0.012364760432766615
sI9
F0.01731066460587326
sI10
F0.04204018547140649
sI11
F0.017619783616692426
sI12
F0.03245749613601236
sI13
F0.006491499227202473
sI14
F0.014219474497681607
sI15
F0.005873261205564142
sI16
F0.005255023183925811
sI17
F0.02287480680061824
sI18
F0.015146831530139104
sI19
F0.01143740340030912
sI20
F0.020401854714064915
sa(dp95
I0
F0.05378670788253478
sI1
F0.0160741885625966
sI2
F0.02936630602782071
sI3
F0.005873261205564142
sI4
F0.4281298299845441
sI5
F0.0061823802163833074
sI6
F0.0012364760432766616
sI7
F0.0077279752704791345
sI8
F0.01669242658423493
sI9
F0.09984544049459042
sI10
F0.02751159196290572
sI11
F0.0080370942812983
sI12
F0.014837712519319939
sI13
F0.026584234930448224
sI14
F0.03245749613601236
sI15
F0.06769706336939722
sI16
F0.06707882534775889
sI17
F0.02534775888717156
sI18
F0.022565687789799074
sI19
F0.022565687789799074
sI20
F0.020401854714064915
sa(dp96
I0
F0.15023183925811437
sI1
F0.1446676970633694
sI2
F0.03802163833075734
sI3
F0.0553323029366306
sI4
F0.27851622874806803
sI5
F0.01669242658423493
sI6
F0.02009273570324575
sI7
F0.0160741885625966
sI8
F0.0160741885625966
sI9
F0.0571870170015456
sI10
F0.03987635239567233
sI11
F0.012982998454404947
sI12
F0.00927357032457496
sI13
F0.00927357032457496
sI14
F0.015765069551777436
sI15
F0.013601236476043277
sI16
F0.03400309119010819
sI17
F0.02071097372488408
sI18
F0.02132921174652241
sI19
F0.009891808346213293
sI20
F0.020401854714064915
sa(dp97
I0
F0.08500772797527048
sI1
F0.015455950540958269
sI2
F0.00927357032457496
sI3
F0.0074188562596599695
sI4
F0.019783616692426585
sI5
F0.01267387944358578
sI6
F0.0015455950540958269
sI7
F0.0018547140649149924
sI8
F0.05038639876352396
sI9
F0.1409582689335394
sI10
F0.02936630602782071
sI11
F0.011746522411128285
sI12
F0.010819165378670788
sI13
F0.08315301391035548
sI14
F0.03740340030911901
sI15
F0.16908809891808346
sI16
F0.1768160741885626
sI17
F0.05749613601236476
sI18
F0.03338485316846986
sI19
F0.03338485316846986
sI20
F0.012982998454404947
sa(dp98
I0
F0.03493044822256569
sI1
F0.01792890262751159
sI2
F0.03894899536321484
sI3
F0.010510046367851623
sI4
F0.002472952086553323
sI5
F0.013601236476043277
sI6
F0.0034003091190108192
sI7
F0.014528593508500772
sI8
F0.023183925811437404
sI9
F0.08624420401854714
sI10
F0.030293663060278208
sI11
F0.01205564142194745
sI12
F0.012982998454404947
sI13
F0.05842349304482226
sI14
F0.1947449768160742
sI15
F0.09428129829984544
sI16
F0.0812982998454405
sI17
F0.0893353941267388
sI18
F0.1418856259659969
sI19
F0.027202472952086554
sI20
F0.011746522411128285
sa(dp99
I0
F0.004327666151468315
sI1
F0.05440494590417311
sI2
F0.11777434312210201
sI3
F0.12364760432766615
sI4
F0.0037094281298299847
sI5
F0.04544049459041731
sI6
F0.0006182380216383308
sI7
F0.05564142194744977
sI8
F0.0021638330757341576
sI9
F0.0061823802163833074
sI10
F0.0055641421947449764
sI11
F0.005255023183925811
sI12
F0.020401854714064915
sI13
F0.0012364760432766616
sI14
F0.5285935085007728
sI15
F0.0009273570324574962
sI16
F0.0021638330757341576
sI17
F0.0037094281298299847
sI18
F0.0018547140649149924
sI19
F0.00927357032457496
sI20
F0.0071097372488408035
sa(dp100
I0
F0.010510046367851623
sI1
F0.05131375579598145
sI2
F0.028438948995363214
sI3
F0.029675425038639878
sI4
F0.0009273570324574962
sI5
F0.004327666151468315
sI6
F0.009582689335394128
sI7
F0.011128284389489953
sI8
F0.009891808346213293
sI9
F0.02936630602782071
sI10
F0.025656877897990725
sI11
F0.025038639876352395
sI12
F0.00927357032457496
sI13
F0.009582689335394128
sI14
F0.04636785162287481
sI15
F0.014837712519319939
sI16
F0.02689335394126739
sI17
F0.22071097372488407
sI18
F0.3987635239567233
sI19
F0.033075734157650694
sI20
F0.00463678516228748
sa(dp101
I0
F0.0021638330757341576
sI1
F0.04698608964451314
sI2
F0.7023183925811437
sI3
F0.12210200927357033
sI4
F0.0012364760432766616
sI5
F0.06522411128284389
sI6
F0.022256568778979906
sI7
F0.0074188562596599695
sI8
F0.0012364760432766616
sI9
F0.0012364760432766616
sI10
F0.002472952086553323
sI11
F0.00463678516228748
sI12
F0.009891808346213293
sI13
F0.0012364760432766616
sI14
F0.0003091190108191654
sI15
F0.0003091190108191654
sI16
F0.0003091190108191654
sI17
F0.0012364760432766616
sI18
F0.0006182380216383308
sI19
F0.0012364760432766616
sI20
F0.0055641421947449764
sa(dp102
I0
F0.016383307573415766
sI1
F0.0982998454404946
sI2
F0.14157650695517773
sI3
F0.317774343122102
sI4
F0.0015455950540958269
sI5
F0.062442040185471406
sI6
F0.00927357032457496
sI7
F0.0491499227202473
sI8
F0.006491499227202473
sI9
F0.06800618238021638
sI10
F0.04791344667697063
sI11
F0.01267387944358578
sI12
F0.04234930448222566
sI13
F0.004945904173106646
sI14
F0.02349304482225657
sI15
F0.00865533230293663
sI16
F0.017619783616692426
sI17
F0.034312210200927354
sI18
F0.018238021638330756
sI19
F0.010819165378670788
sI20
F0.0080370942812983
sa(dp103
I0
F0.01792890262751159
sI1
F0.03709428129829984
sI2
F0.09366306027820712
sI3
F0.02751159196290572
sI4
F0.010819165378670788
sI5
F0.2828438948995363
sI6
F0.009891808346213293
sI7
F0.005873261205564142
sI8
F0.013910355486862442
sI9
F0.023802163833075735
sI10
F0.009891808346213293
sI11
F0.03338485316846986
sI12
F0.27851622874806803
sI13
F0.0160741885625966
sI14
F0.0027820710973724882
sI15
F0.0068006182380216385
sI16
F0.0012364760432766616
sI17
F0.029675425038639878
sI18
F0.010819165378670788
sI19
F0.07789799072642968
sI20
F0.009582689335394128
sa(dp104
I0
F0.12704791344667696
sI1
F0.005873261205564142
sI2
F0.024420401854714065
sI3
F0.0034003091190108192
sI4
F0.028438948995363214
sI5
F0.009582689335394128
sI6
F0.014528593508500772
sI7
F0.013910355486862442
sI8
F0.10757341576506955
sI9
F0.09304482225656878
sI10
F0.010200927357032458
sI11
F0.016383307573415766
sI12
F0.0077279752704791345
sI13
F0.10510046367851623
sI14
F0.06522411128284389
sI15
F0.08995363214837712
sI16
F0.04358578052550232
sI17
F0.14837712519319937
sI18
F0.060587326120556416
sI19
F0.015765069551777436
sI20
F0.00927357032457496
sa(dp105
I0
F0.01792890262751159
sI1
F0.0055641421947449764
sI2
F0.00463678516228748
sI3
F0.0018547140649149924
sI4
F0.025038639876352395
sI5
F0.0055641421947449764
sI6
F0.0003091190108191654
sI7
F0.0027820710973724882
sI8
F0.6850077279752704
sI9
F0.03462132921174652
sI10
F0.013601236476043277
sI11
F0.0021638330757341576
sI12
F0.02009273570324575
sI13
F0.04204018547140649
sI14
F0.012364760432766615
sI15
F0.0491499227202473
sI16
F0.023802163833075735
sI17
F0.023802163833075735
sI18
F0.01731066460587326
sI19
F0.0055641421947449764
sI20
F0.0068006182380216385
sa(dp106
I0
F0.02936630602782071
sI1
F0.024420401854714065
sI2
F0.020401854714064915
sI3
F0.027820710973724884
sI4
F0.004327666151468315
sI5
F0.005255023183925811
sI6
F0.0015455950540958269
sI7
F0.014528593508500772
sI8
F0.03523956723338485
sI9
F0.028438948995363214
sI10
F0.04389489953632148
sI11
F0.006491499227202473
sI12
F0.00401854714064915
sI13
F0.029984544049459043
sI14
F0.09211746522411128
sI15
F0.022256568778979906
sI16
F0.05007727975270479
sI17
F0.36506955177743433
sI18
F0.16970633693972179
sI19
F0.01267387944358578
sI20
F0.012364760432766615
sa(dp107
I0
F0.03338485316846986
sI1
F0.13075734157650695
sI2
F0.12704791344667696
sI3
F0.11591962905718702
sI4
F0.08191653786707882
sI5
F0.022256568778979906
sI6
F0.0018547140649149924
sI7
F0.01669242658423493
sI8
F0.010200927357032458
sI9
F0.02751159196290572
sI10
F0.027820710973724884
sI11
F0.01143740340030912
sI12
F0.00463678516228748
sI13
F0.00927357032457496
sI14
F0.12179289026275116
sI15
F0.011128284389489953
sI16
F0.11097372488408037
sI17
F0.05378670788253478
sI18
F0.05440494590417311
sI19
F0.010200927357032458
sI20
F0.017001545595054096
sa(dp108
I0
F0.0160741885625966
sI1
F0.05007727975270479
sI2
F0.6800618238021638
sI3
F0.07480680061823802
sI4
F0.015455950540958269
sI5
F0.017619783616692426
sI6
F0.0012364760432766616
sI7
F0.06306027820710974
sI8
F0.0021638330757341576
sI9
F0.00463678516228748
sI10
F0.0068006182380216385
sI11
F0.00401854714064915
sI12
F0.012364760432766615
sI13
F0.0030911901081916537
sI14
F0.0018547140649149924
sI15
F0.01205564142194745
sI16
F0.0018547140649149924
sI17
F0.010200927357032458
sI18
F0.010819165378670788
sI19
F0.0009273570324574962
sI20
F0.010819165378670788
sa(dp109
I0
F0.03833075734157651
sI1
F0.01669242658423493
sI2
F0.017001545595054096
sI3
F0.0068006182380216385
sI4
F0.023802163833075735
sI5
F0.005255023183925811
sI6
F0.0012364760432766616
sI7
F0.0077279752704791345
sI8
F0.02534775888717156
sI9
F0.0633693972179289
sI10
F0.03678516228748068
sI11
F0.00401854714064915
sI12
F0.0077279752704791345
sI13
F0.06831530139103555
sI14
F0.06800618238021638
sI15
F0.17928902627511592
sI16
F0.1758887171561051
sI17
F0.16105100463678515
sI18
F0.05069551777434312
sI19
F0.01947449768160742
sI20
F0.023183925811437404
sa(dp110
I0
F0.018856259659969087
sI1
F0.0034003091190108192
sI2
F0.014528593508500772
sI3
F0.002472952086553323
sI4
F0.04976816074188563
sI5
F0.0012364760432766616
sI6
F0.0006182380216383308
sI7
F0.00463678516228748
sI8
F0.03462132921174652
sI9
F0.03585780525502318
sI10
F0.0080370942812983
sI11
F0.0009273570324574962
sI12
F0.00463678516228748
sI13
F0.09922720247295208
sI14
F0.00865533230293663
sI15
F0.5993817619783617
sI16
F0.06862442040185471
sI17
F0.019783616692426585
sI18
F0.0071097372488408035
sI19
F0.0061823802163833074
sI20
F0.01143740340030912
sa(dp111
I0
F0.05687789799072643
sI1
F0.0077279752704791345
sI2
F0.01143740340030912
sI3
F0.0037094281298299847
sI4
F0.010819165378670788
sI5
F0.0080370942812983
sI6
F0.00463678516228748
sI7
F0.005255023183925811
sI8
F0.09304482225656878
sI9
F0.12395672333848531
sI10
F0.05780525502318393
sI11
F0.00463678516228748
sI12
F0.0068006182380216385
sI13
F0.09335394126738794
sI14
F0.04173106646058733
sI15
F0.20680061823802165
sI16
F0.12797527047913446
sI17
F0.05100463678516229
sI18
F0.018856259659969087
sI19
F0.05749613601236476
sI20
F0.0080370942812983
sa(dp112
I0
F0.07697063369397218
sI1
F0.03616692426584235
sI2
F0.0482225656877898
sI3
F0.02936630602782071
sI4
F0.00401854714064915
sI5
F0.0080370942812983
sI6
F0.0080370942812983
sI7
F0.028438948995363214
sI8
F0.015455950540958269
sI9
F0.06027820710973725
sI10
F0.06800618238021638
sI11
F0.018238021638330756
sI12
F0.011746522411128285
sI13
F0.02936630602782071
sI14
F0.08469860896445132
sI15
F0.08377125193199382
sI16
F0.06584234930448223
sI17
F0.16537867078825347
sI18
F0.119629057187017
sI19
F0.029984544049459043
sI20
F0.008346213292117466
sa(dp113
I0
F0.030293663060278208
sI1
F0.031221020092735703
sI2
F0.0723338485316847
sI3
F0.027202472952086554
sI4
F0.06213292117465224
sI5
F0.01267387944358578
sI6
F0.0009273570324574962
sI7
F0.008346213292117466
sI8
F0.002472952086553323
sI9
F0.10695517774343122
sI10
F0.4293663060278207
sI11
F0.009891808346213293
sI12
F0.008964451313755796
sI13
F0.015765069551777436
sI14
F0.025656877897990725
sI15
F0.025965996908809894
sI16
F0.012364760432766615
sI17
F0.05811437403400309
sI18
F0.03740340030911901
sI19
F0.012364760432766615
sI20
F0.009582689335394128
sa(dp114
I0
F0.01731066460587326
sI1
F0.08315301391035548
sI2
F0.6704791344667697
sI3
F0.10571870170015456
sI4
F0.03802163833075734
sI5
F0.01731066460587326
sI6
F0.012982998454404947
sI7
F0.0241112828438949
sI8
F0.00401854714064915
sI9
F0.004327666151468315
sI10
F0.0018547140649149924
sI11
F0.0015455950540958269
sI12
F0.0012364760432766616
sI13
F0.0015455950540958269
sI14
F0.0012364760432766616
sI15
F0.0018547140649149924
sI16
F0.0012364760432766616
sI17
F0.0015455950540958269
sI18
F0.0021638330757341576
sI19
F0.0006182380216383308
sI20
F0.0077279752704791345
sa(dp115
I0
F0.16754250386398764
sI1
F0.01731066460587326
sI2
F0.023183925811437404
sI3
F0.010819165378670788
sI4
F0.0027820710973724882
sI5
F0.00927357032457496
sI6
F0.0030911901081916537
sI7
F0.006491499227202473
sI8
F0.09860896445131376
sI9
F0.19721792890262752
sI10
F0.029057187017001544
sI11
F0.0071097372488408035
sI12
F0.011128284389489953
sI13
F0.020401854714064915
sI14
F0.06460587326120557
sI15
F0.05378670788253478
sI16
F0.11190108191653787
sI17
F0.08006182380216384
sI18
F0.05224111282843895
sI19
F0.02349304482225657
sI20
F0.009891808346213293
sa(dp116
I0
F0.06800618238021638
sI1
F0.0055641421947449764
sI2
F0.00927357032457496
sI3
F0.0034003091190108192
sI4
F0.002472952086553323
sI5
F0.030293663060278208
sI6
F0.002472952086553323
sI7
F0.010819165378670788
sI8
F0.015146831530139104
sI9
F0.17001545595054096
sI10
F0.03616692426584235
sI11
F0.004327666151468315
sI12
F0.02751159196290572
sI13
F0.029057187017001544
sI14
F0.062442040185471406
sI15
F0.3017001545595054
sI16
F0.15857805255023183
sI17
F0.026584234930448224
sI18
F0.006491499227202473
sI19
F0.021020092735703245
sI20
F0.00865533230293663
sa(dp117
I0
F0.04111282843894899
sI1
F0.04080370942812983
sI2
F0.19629057187017002
sI3
F0.04327666151468315
sI4
F0.0034003091190108192
sI5
F0.04080370942812983
sI6
F0.004945904173106646
sI7
F0.008346213292117466
sI8
F0.0009273570324574962
sI9
F0.02627511591962906
sI10
F0.01267387944358578
sI11
F0.07480680061823802
sI12
F0.3950540958268934
sI13
F0.021020092735703245
sI14
F0.02627511591962906
sI15
F0.0021638330757341576
sI16
F0.00401854714064915
sI17
F0.004327666151468315
sI18
F0.0055641421947449764
sI19
F0.033693972179289024
sI20
F0.014219474497681607
sa(dp118
I0
F0.02071097372488408
sI1
F0.0080370942812983
sI2
F0.00865533230293663
sI3
F0.006491499227202473
sI4
F0.03276661514683153
sI5
F0.004327666151468315
sI6
F0.0018547140649149924
sI7
F0.0009273570324574962
sI8
F0.36599690880989183
sI9
F0.05378670788253478
sI10
F0.0055641421947449764
sI11
F0.01205564142194745
sI12
F0.0012364760432766616
sI13
F0.16816074188562596
sI14
F0.03554868624420402
sI15
F0.05780525502318393
sI16
F0.05440494590417311
sI17
F0.10293663060278208
sI18
F0.024420401854714065
sI19
F0.015146831530139104
sI20
F0.019165378670788255
sa(dp119
I0
F0.011128284389489953
sI1
F0.2250386398763524
sI2
F0.20401854714064915
sI3
F0.3931993817619784
sI4
F0.0074188562596599695
sI5
F0.025038639876352395
sI6
F0.0061823802163833074
sI7
F0.04698608964451314
sI8
F0.004327666151468315
sI9
F0.013292117465224112
sI10
F0.00865533230293663
sI11
F0.00401854714064915
sI12
F0.004945904173106646
sI13
F0.005255023183925811
sI14
F0.0034003091190108192
sI15
F0.0030911901081916537
sI16
F0.0030911901081916537
sI17
F0.0077279752704791345
sI18
F0.0068006182380216385
sI19
F0.0003091190108191654
sI20
F0.0160741885625966
sa(dp120
I0
F0.04204018547140649
sI1
F0.04389489953632148
sI2
F0.02194744976816074
sI3
F0.010200927357032458
sI4
F0.04080370942812983
sI5
F0.014528593508500772
sI6
F0.0015455950540958269
sI7
F0.0068006182380216385
sI8
F0.04884080370942813
sI9
F0.05780525502318393
sI10
F0.0865533230293663
sI11
F0.008964451313755796
sI12
F0.005255023183925811
sI13
F0.02689335394126739
sI14
F0.13323029366306027
sI15
F0.0401854714064915
sI16
F0.1125193199381762
sI17
F0.18361669242658424
sI18
F0.06646058732612056
sI19
F0.03183925811437403
sI20
F0.0160741885625966
sa(dp121
I0
F0.04667697063369397
sI1
F0.0068006182380216385
sI2
F0.012364760432766615
sI3
F0.0030911901081916537
sI4
F0.09304482225656878
sI5
F0.0077279752704791345
sI6
F0.0009273570324574962
sI7
F0.002472952086553323
sI8
F0.017001545595054096
sI9
F0.0902627511591963
sI10
F0.02936630602782071
sI11
F0.0015455950540958269
sI12
F0.005873261205564142
sI13
F0.14775888717156105
sI14
F0.022565687789799074
sI15
F0.24884080370942813
sI16
F0.121483771251932
sI17
F0.07017001545595054
sI18
F0.017619783616692426
sI19
F0.0241112828438949
sI20
F0.030293663060278208
sa(dp122
I0
F0.01792890262751159
sI1
F0.0015455950540958269
sI2
F0.015146831530139104
sI3
F0.0015455950540958269
sI4
F0.0037094281298299847
sI5
F0.004945904173106646
sI6
F0.0015455950540958269
sI7
F0.00865533230293663
sI8
F0.429984544049459
sI9
F0.030602782071097373
sI10
F0.01267387944358578
sI11
F0.009891808346213293
sI12
F0.013292117465224112
sI13
F0.11591962905718702
sI14
F0.02689335394126739
sI15
F0.09582689335394126
sI16
F0.09088098918083462
sI17
F0.04976816074188563
sI18
F0.01731066460587326
sI19
F0.014837712519319939
sI20
F0.03709428129829984
sa(dp123
I0
F0.10231839258114374
sI1
F0.0241112828438949
sI2
F0.014837712519319939
sI3
F0.0068006182380216385
sI4
F0.00463678516228748
sI5
F0.013292117465224112
sI6
F0.0009273570324574962
sI7
F0.025038639876352395
sI8
F0.03956723338485317
sI9
F0.2491499227202473
sI10
F0.0401854714064915
sI11
F0.03678516228748068
sI12
F0.012982998454404947
sI13
F0.03647604327666151
sI14
F0.02936630602782071
sI15
F0.2009273570324575
sI16
F0.0401854714064915
sI17
F0.029675425038639878
sI18
F0.0061823802163833074
sI19
F0.04080370942812983
sI20
F0.04574961360123648
sa(dp124
I0
F0.019783616692426585
sI1
F0.14775888717156105
sI2
F0.03585780525502318
sI3
F0.06460587326120557
sI4
F0.00927357032457496
sI5
F0.02751159196290572
sI6
F0.0006182380216383308
sI7
F0.02936630602782071
sI8
F0.005873261205564142
sI9
F0.04265842349304482
sI10
F0.2908809891808346
sI11
F0.009891808346213293
sI12
F0.00401854714064915
sI13
F0.02627511591962906
sI14
F0.04698608964451314
sI15
F0.0030911901081916537
sI16
F0.05409582689335394
sI17
F0.08593508500772798
sI18
F0.03554868624420402
sI19
F0.0074188562596599695
sI20
F0.05255023183925812
sa(dp125
I0
F0.009582689335394128
sI1
F0.23462132921174653
sI2
F0.3400309119010819
sI3
F0.29984544049459044
sI4
F0.0003091190108191654
sI5
F0.02287480680061824
sI6
F0.0003091190108191654
sI7
F0.025656877897990725
sI8
F0.0003091190108191654
sI9
F0.0009273570324574962
sI10
F0.0037094281298299847
sI11
F0.0012364760432766616
sI12
F0.0021638330757341576
sI13
F0.0009273570324574962
sI14
F0.0003091190108191654
sI15
F0.0006182380216383308
sI16
F0.0009273570324574962
sI17
F0.0018547140649149924
sI18
F0.0018547140649149924
sI19
F0.0003091190108191654
sI20
F0.05162287480680062
sa(dp126
I0
F0.01669242658423493
sI1
F0.07078825347758887
sI2
F0.06213292117465224
sI3
F0.06522411128284389
sI4
F0.0012364760432766616
sI5
F0.03863987635239567
sI6
F0.004945904173106646
sI7
F0.06615146831530139
sI8
F0.004327666151468315
sI9
F0.019165378670788255
sI10
F0.04420401854714065
sI11
F0.010819165378670788
sI12
F0.059350850077279756
sI13
F0.025038639876352395
sI14
F0.05069551777434312
sI15
F0.04296754250386399
sI16
F0.062442040185471406
sI17
F0.018856259659969087
sI18
F0.0160741885625966
sI19
F0.26676970633693975
sI20
F0.05347758887171561
sa(dp127
I0
F0.03771251931993817
sI1
F0.23523956723338485
sI2
F0.3978361669242658
sI3
F0.05440494590417311
sI4
F0.0006182380216383308
sI5
F0.0472952086553323
sI6
F0.0009273570324574962
sI7
F0.11777434312210201
sI8
F0.0009273570324574962
sI9
F0.0027820710973724882
sI10
F0.0021638330757341576
sI11
F0.02627511591962906
sI12
F0.002472952086553323
sI13
F0.0006182380216383308
sI14
F0.0015455950540958269
sI15
F0.0006182380216383308
sI16
F0.0006182380216383308
sI17
F0.0006182380216383308
sI18
F0.0012364760432766616
sI19
F0.0012364760432766616
sI20
F0.06707882534775889
sa(dp128
I0
F0.030293663060278208
sI1
F0.26924265842349304
sI2
F0.09613601236476044
sI3
F0.08160741885625966
sI4
F0.0018547140649149924
sI5
F0.03616692426584235
sI6
F0.0018547140649149924
sI7
F0.078516228748068
sI8
F0.0061823802163833074
sI9
F0.034312210200927354
sI10
F0.03554868624420402
sI11
F0.0071097372488408035
sI12
F0.03894899536321484
sI13
F0.014528593508500772
sI14
F0.014528593508500772
sI15
F0.0071097372488408035
sI16
F0.01205564142194745
sI17
F0.0080370942812983
sI18
F0.027820710973724884
sI19
F0.03400309119010819
sI20
F0.16414219474497682
sa(dp129
I0
F0.022565687789799074
sI1
F0.11653786707882535
sI2
F0.1777434312210201
sI3
F0.08191653786707882
sI4
F0.014528593508500772
sI5
F0.012982998454404947
sI6
F0.0034003091190108192
sI7
F0.010200927357032458
sI8
F0.07357032457496136
sI9
F0.019165378670788255
sI10
F0.021638330757341576
sI11
F0.010200927357032458
sI12
F0.010510046367851623
sI13
F0.0061823802163833074
sI14
F0.033075734157650694
sI15
F0.002472952086553323
sI16
F0.019783616692426585
sI17
F0.04204018547140649
sI18
F0.03276661514683153
sI19
F0.0034003091190108192
sI20
F0.28531684698608967
sa(dp130
I0
F0.02751159196290572
sI1
F0.004327666151468315
sI2
F0.004327666151468315
sI3
F0.0030911901081916537
sI4
F0.014837712519319939
sI5
F0.0034003091190108192
sI6
F0.0012364760432766616
sI7
F0.0037094281298299847
sI8
F0.010819165378670788
sI9
F0.09088098918083462
sI10
F0.04234930448222566
sI11
F0.005255023183925811
sI12
F0.0012364760432766616
sI13
F0.017619783616692426
sI14
F0.023802163833075735
sI15
F0.009582689335394128
sI16
F0.030602782071097373
sI17
F0.13044822256568778
sI18
F0.18608964451313756
sI19
F0.011746522411128285
sI20
F0.37712519319938176
sa(dp131
I0
F0.018856259659969087
sI1
F0.008346213292117466
sI2
F0.13230293663060277
sI3
F0.004327666151468315
sI4
F0.08253477588871716
sI5
F0.0018547140649149924
sI6
F0.0006182380216383308
sI7
F0.009582689335394128
sI8
F0.0021638330757341576
sI9
F0.013910355486862442
sI10
F0.012364760432766615
sI11
F0.0021638330757341576
sI12
F0.0015455950540958269
sI13
F0.010510046367851623
sI14
F0.05904173106646059
sI15
F0.0077279752704791345
sI16
F0.01669242658423493
sI17
F0.04451313755795981
sI18
F0.0160741885625966
sI19
F0.00463678516228748
sI20
F0.5502318392581144
sa(dp132
I0
F0.0034003091190108192
sI1
F0.0021638330757341576
sI2
F0.008346213292117466
sI3
F0.0027820710973724882
sI4
F0.004945904173106646
sI5
F0.0003091190108191654
sI6
F0.0006182380216383308
sI7
F0.0006182380216383308
sI8
F0.0021638330757341576
sI9
F0.006491499227202473
sI10
F0.0030911901081916537
sI11
F0.0018547140649149924
sI12
F0.0006182380216383308
sI13
F0.0027820710973724882
sI14
F0.0030911901081916537
sI15
F0.0015455950540958269
sI16
F0.002472952086553323
sI17
F0.03802163833075734
sI18
F0.13539412673879445
sI19
F0.0034003091190108192
sI20
F0.7758887171561051
sasS'n_states'
p133
I21
sbsS'args'
p134
g4
(cargparse
Namespace
p135
g6
Ntp136
Rp137
(dp138
g3
S'../deepnet/datasets/PF00240/PF00240_test.npy'
p139
sS'nstates'
p140
I21
sg31
S'../deepnet/datasets/PF00240/PF00240_train.npy'
p141
sg44
S'../deepnet/datasets/PF00240/PF00240_valid.npy'
p142
sS'outf'
p143
S'PF00240.pkl'
p144
sbs.