(dp0
S'metrics'
p1
(dp2
S'test'
p3
ccopy_reg
_reconstructor
p4
(c__main__
Metrics
p5
c__builtin__
object
p6
Ntp7
Rp8
(dp9
S'impute_accuracy'
p10
cnumpy.core.multiarray
scalar
p11
(cnumpy
dtype
p12
(S'f8'
p13
I0
I1
tp14
Rp15
(I3
S'<'
p16
NNNI-1
I-1
I0
tp17
bS'\xc3\xf5(\\\x8f"E@'
p18
tp19
Rp20
sS'cross_entropy'
p21
g11
(g15
S'\x03c\x983\xfb8g@'
p22
tp23
Rp24
sS'logProb'
p25
g11
(g15
S'\x03c\x983\xfb8g\xc0'
p26
tp27
Rp28
sS'pll'
p29
g28
sS'accuracy'
p30
g20
sbsS'train'
p31
g4
(g5
g6
Ntp32
Rp33
(dp34
g10
g11
(g15
S'\xcc]K\xc8\x07=E@'
p35
tp36
Rp37
sg21
g11
(g15
S's\x0b\xbcA\x14\x14g@'
p38
tp39
Rp40
sg25
g11
(g15
S's\x0b\xbcA\x14\x14g\xc0'
p41
tp42
Rp43
sg29
g43
sg30
g37
sbsS'valid'
p44
g4
(g5
g6
Ntp45
Rp46
(dp47
g10
g11
(g15
S'%\x06\x81\x95C\xfbD@'
p48
tp49
Rp50
sg21
g11
(g15
S'\xac\x82P<\x0f;g@'
p51
tp52
Rp53
sg25
g11
(g15
S'\xac\x82P<\x0f;g\xc0'
p54
tp55
Rp56
sg29
g56
sg30
g50
sbssS'model'
p57
g4
(c__main__
Multinomial
p58
g6
Ntp59
Rp60
(dp61
S'vmf'
p62
(lp63
(dp64
I0
F0.008964143426294821
sI1
F0.401195219123506
sI2
F0.008964143426294821
sI3
F0.010159362549800797
sI4
F0.011752988047808765
sI5
F0.010956175298804782
sI6
F0.013545816733067729
sI7
F0.007171314741035857
sI8
F0.009362549800796812
sI9
F0.009362549800796812
sI10
F0.010159362549800797
sI11
F0.007569721115537849
sI12
F0.010956175298804782
sI13
F0.008764940239043825
sI14
F0.010358565737051793
sI15
F0.009362549800796812
sI16
F0.008565737051792829
sI17
F0.42290836653386454
sI18
F0.009561752988047808
sI19
F0.010358565737051793
sa(dp65
I0
F0.012948207171314742
sI1
F0.009760956175298804
sI2
F0.008964143426294821
sI3
F0.011553784860557768
sI4
F0.008764940239043825
sI5
F0.01055776892430279
sI6
F0.01195219123505976
sI7
F0.008366533864541833
sI8
F0.4137450199203187
sI9
F0.012948207171314742
sI10
F0.008366533864541833
sI11
F0.009561752988047808
sI12
F0.40936254980079684
sI13
F0.009362549800796812
sI14
F0.009561752988047808
sI15
F0.008964143426294821
sI16
F0.009561752988047808
sI17
F0.007768924302788844
sI18
F0.009163346613545816
sI19
F0.008764940239043825
sa(dp66
I0
F0.046215139442231074
sI1
F0.05
sI2
F0.044223107569721115
sI3
F0.05358565737051793
sI4
F0.05617529880478088
sI5
F0.043625498007968125
sI6
F0.04541832669322709
sI7
F0.04701195219123506
sI8
F0.050199203187251
sI9
F0.053784860557768925
sI10
F0.04960159362549801
sI11
F0.051593625498007965
sI12
F0.04960159362549801
sI13
F0.055378486055776895
sI14
F0.046812749003984064
sI15
F0.053187250996015935
sI16
F0.05
sI17
F0.05557768924302789
sI18
F0.04701195219123506
sI19
F0.05099601593625498
sa(dp67
I0
F0.04940239043824701
sI1
F0.04780876494023904
sI2
F0.04960159362549801
sI3
F0.05099601593625498
sI4
F0.051593625498007965
sI5
F0.051593625498007965
sI6
F0.05
sI7
F0.050597609561752986
sI8
F0.05079681274900399
sI9
F0.04960159362549801
sI10
F0.045219123505976094
sI11
F0.04840637450199203
sI12
F0.052788844621513946
sI13
F0.051593625498007965
sI14
F0.051593625498007965
sI15
F0.04541832669322709
sI16
F0.05458167330677291
sI17
F0.05239043824701195
sI18
F0.05298804780876494
sI19
F0.04302788844621514
sa(dp68
I0
F0.013745019920318725
sI1
F0.009561752988047808
sI2
F0.010756972111553785
sI3
F0.011354581673306772
sI4
F0.0099601593625498
sI5
F0.010956175298804782
sI6
F0.01454183266932271
sI7
F0.008565737051792829
sI8
F0.01254980079681275
sI9
F0.010956175298804782
sI10
F0.011553784860557768
sI11
F0.008964143426294821
sI12
F0.008764940239043825
sI13
F0.009362549800796812
sI14
F0.010358565737051793
sI15
F0.800597609561753
sI16
F0.0099601593625498
sI17
F0.008366533864541833
sI18
F0.009561752988047808
sI19
F0.009561752988047808
sa(dp69
I0
F0.009163346613545816
sI1
F0.00796812749003984
sI2
F0.007768924302788844
sI3
F0.010159362549800797
sI4
F0.011354581673306772
sI5
F0.010756972111553785
sI6
F0.40199203187251
sI7
F0.010159362549800797
sI8
F0.0099601593625498
sI9
F0.010756972111553785
sI10
F0.41693227091633467
sI11
F0.010756972111553785
sI12
F0.011155378486055778
sI13
F0.010358565737051793
sI14
F0.011752988047808765
sI15
F0.0099601593625498
sI16
F0.008565737051792829
sI17
F0.008764940239043825
sI18
F0.011752988047808765
sI19
F0.0099601593625498
sa(dp70
I0
F0.04920318725099602
sI1
F0.05139442231075697
sI2
F0.05079681274900399
sI3
F0.05358565737051793
sI4
F0.04760956175298805
sI5
F0.05239043824701195
sI6
F0.050597609561752986
sI7
F0.04960159362549801
sI8
F0.051195219123505976
sI9
F0.05179282868525897
sI10
F0.051593625498007965
sI11
F0.05039840637450199
sI12
F0.05239043824701195
sI13
F0.04721115537848605
sI14
F0.04820717131474104
sI15
F0.05179282868525897
sI16
F0.04900398406374502
sI17
F0.0450199203187251
sI18
F0.044820717131474105
sI19
F0.05139442231075697
sa(dp71
I0
F0.04780876494023904
sI1
F0.05179282868525897
sI2
F0.05239043824701195
sI3
F0.05258964143426295
sI4
F0.05139442231075697
sI5
F0.04462151394422311
sI6
F0.0549800796812749
sI7
F0.043625498007968125
sI8
F0.051195219123505976
sI9
F0.05816733067729084
sI10
F0.04561752988047809
sI11
F0.05358565737051793
sI12
F0.050597609561752986
sI13
F0.0450199203187251
sI14
F0.04243027888446215
sI15
F0.05697211155378486
sI16
F0.04541832669322709
sI17
F0.04800796812749004
sI18
F0.05199203187250996
sI19
F0.05179282868525897
sa(dp72
I0
F0.01055776892430279
sI1
F0.010956175298804782
sI2
F0.01254980079681275
sI3
F0.008366533864541833
sI4
F0.015139442231075698
sI5
F0.008964143426294821
sI6
F0.010159362549800797
sI7
F0.009362549800796812
sI8
F0.7938247011952191
sI9
F0.01055776892430279
sI10
F0.009561752988047808
sI11
F0.010756972111553785
sI12
F0.011752988047808765
sI13
F0.01195219123505976
sI14
F0.010956175298804782
sI15
F0.010358565737051793
sI16
F0.0099601593625498
sI17
F0.01254980079681275
sI18
F0.01055776892430279
sI19
F0.011155378486055778
sa(dp73
I0
F0.010159362549800797
sI1
F0.012151394422310757
sI2
F0.010358565737051793
sI3
F0.4137450199203187
sI4
F0.01195219123505976
sI5
F0.40199203187251
sI6
F0.009561752988047808
sI7
F0.0099601593625498
sI8
F0.0099601593625498
sI9
F0.00796812749003984
sI10
F0.009760956175298804
sI11
F0.009362549800796812
sI12
F0.008964143426294821
sI13
F0.011155378486055778
sI14
F0.011155378486055778
sI15
F0.008167330677290837
sI16
F0.012350597609561753
sI17
F0.010756972111553785
sI18
F0.010159362549800797
sI19
F0.010358565737051793
sa(dp74
I0
F0.007768924302788844
sI1
F0.00796812749003984
sI2
F0.010358565737051793
sI3
F0.013346613545816732
sI4
F0.009760956175298804
sI5
F0.01195219123505976
sI6
F0.012151394422310757
sI7
F0.008964143426294821
sI8
F0.010956175298804782
sI9
F0.4051792828685259
sI10
F0.010956175298804782
sI11
F0.4059760956175299
sI12
F0.01055776892430279
sI13
F0.009163346613545816
sI14
F0.010956175298804782
sI15
F0.008167330677290837
sI16
F0.011354581673306772
sI17
F0.01254980079681275
sI18
F0.010756972111553785
sI19
F0.011155378486055778
sa(dp75
I0
F0.011155378486055778
sI1
F0.010956175298804782
sI2
F0.008764940239043825
sI3
F0.795816733067729
sI4
F0.014143426294820717
sI5
F0.011155378486055778
sI6
F0.00796812749003984
sI7
F0.009163346613545816
sI8
F0.015537848605577689
sI9
F0.01055776892430279
sI10
F0.009760956175298804
sI11
F0.010358565737051793
sI12
F0.009163346613545816
sI13
F0.01055776892430279
sI14
F0.013545816733067729
sI15
F0.010956175298804782
sI16
F0.012350597609561753
sI17
F0.008764940239043825
sI18
F0.010358565737051793
sI19
F0.008964143426294821
sa(dp76
I0
F0.05458167330677291
sI1
F0.04721115537848605
sI2
F0.04960159362549801
sI3
F0.04760956175298805
sI4
F0.04880478087649402
sI5
F0.04780876494023904
sI6
F0.053784860557768925
sI7
F0.049800796812749
sI8
F0.05298804780876494
sI9
F0.04760956175298805
sI10
F0.04840637450199203
sI11
F0.054382470119521915
sI12
F0.05
sI13
F0.050199203187251
sI14
F0.053784860557768925
sI15
F0.04840637450199203
sI16
F0.045816733067729085
sI17
F0.04920318725099602
sI18
F0.04920318725099602
sI19
F0.05079681274900399
sa(dp77
I0
F0.010159362549800797
sI1
F0.009163346613545816
sI2
F0.009561752988047808
sI3
F0.00796812749003984
sI4
F0.010756972111553785
sI5
F0.01055776892430279
sI6
F0.0099601593625498
sI7
F0.011155378486055778
sI8
F0.00796812749003984
sI9
F0.008565737051792829
sI10
F0.011553784860557768
sI11
F0.012948207171314742
sI12
F0.012749003984063745
sI13
F0.011354581673306772
sI14
F0.8033864541832669
sI15
F0.0099601593625498
sI16
F0.011752988047808765
sI17
F0.011155378486055778
sI18
F0.011354581673306772
sI19
F0.00796812749003984
sa(dp78
I0
F0.008764940239043825
sI1
F0.0099601593625498
sI2
F0.398406374501992
sI3
F0.013147410358565738
sI4
F0.011553784860557768
sI5
F0.010358565737051793
sI6
F0.4065737051792829
sI7
F0.01055776892430279
sI8
F0.012151394422310757
sI9
F0.01254980079681275
sI10
F0.011553784860557768
sI11
F0.012749003984063745
sI12
F0.012749003984063745
sI13
F0.009163346613545816
sI14
F0.010756972111553785
sI15
F0.0099601593625498
sI16
F0.010956175298804782
sI17
F0.008366533864541833
sI18
F0.008964143426294821
sI19
F0.010756972111553785
sa(dp79
I0
F0.010756972111553785
sI1
F0.0099601593625498
sI2
F0.009163346613545816
sI3
F0.010756972111553785
sI4
F0.008964143426294821
sI5
F0.009163346613545816
sI6
F0.010956175298804782
sI7
F0.009760956175298804
sI8
F0.014940239043824702
sI9
F0.009362549800796812
sI10
F0.40816733067729083
sI11
F0.009561752988047808
sI12
F0.008964143426294821
sI13
F0.010358565737051793
sI14
F0.40717131474103585
sI15
F0.011553784860557768
sI16
F0.0099601593625498
sI17
F0.007370517928286853
sI18
F0.01055776892430279
sI19
F0.01254980079681275
sa(dp80
I0
F0.014143426294820717
sI1
F0.009760956175298804
sI2
F0.009362549800796812
sI3
F0.007768924302788844
sI4
F0.009163346613545816
sI5
F0.010358565737051793
sI6
F0.012350597609561753
sI7
F0.01195219123505976
sI8
F0.800199203187251
sI9
F0.0099601593625498
sI10
F0.011155378486055778
sI11
F0.0099601593625498
sI12
F0.008565737051792829
sI13
F0.009362549800796812
sI14
F0.010956175298804782
sI15
F0.011752988047808765
sI16
F0.010956175298804782
sI17
F0.01254980079681275
sI18
F0.011354581673306772
sI19
F0.008366533864541833
sa(dp81
I0
F0.010358565737051793
sI1
F0.008565737051792829
sI2
F0.011155378486055778
sI3
F0.009362549800796812
sI4
F0.009760956175298804
sI5
F0.008764940239043825
sI6
F0.008167330677290837
sI7
F0.0069721115537848604
sI8
F0.4109561752988048
sI9
F0.011354581673306772
sI10
F0.009362549800796812
sI11
F0.008964143426294821
sI12
F0.4113545816733068
sI13
F0.011155378486055778
sI14
F0.010358565737051793
sI15
F0.012350597609561753
sI16
F0.011553784860557768
sI17
F0.01055776892430279
sI18
F0.008565737051792829
sI19
F0.010358565737051793
sa(dp82
I0
F0.049800796812749
sI1
F0.04940239043824701
sI2
F0.04880478087649402
sI3
F0.04721115537848605
sI4
F0.05
sI5
F0.04920318725099602
sI6
F0.05517928286852589
sI7
F0.051195219123505976
sI8
F0.04860557768924303
sI9
F0.04920318725099602
sI10
F0.04900398406374502
sI11
F0.04701195219123506
sI12
F0.05298804780876494
sI13
F0.052191235059760956
sI14
F0.051195219123505976
sI15
F0.045816733067729085
sI16
F0.04940239043824701
sI17
F0.04920318725099602
sI18
F0.052788844621513946
sI19
F0.05179282868525897
sa(dp83
I0
F0.05358565737051793
sI1
F0.05039840637450199
sI2
F0.051593625498007965
sI3
F0.0450199203187251
sI4
F0.049800796812749
sI5
F0.054780876494023904
sI6
F0.04960159362549801
sI7
F0.052788844621513946
sI8
F0.04860557768924303
sI9
F0.05
sI10
F0.04920318725099602
sI11
F0.054183266932270914
sI12
F0.04661354581673307
sI13
F0.05199203187250996
sI14
F0.04900398406374502
sI15
F0.04840637450199203
sI16
F0.04701195219123506
sI17
F0.04960159362549801
sI18
F0.04820717131474104
sI19
F0.04960159362549801
sa(dp84
I0
F0.011553784860557768
sI1
F0.009163346613545816
sI2
F0.01195219123505976
sI3
F0.012350597609561753
sI4
F0.010756972111553785
sI5
F0.009163346613545816
sI6
F0.009760956175298804
sI7
F0.799601593625498
sI8
F0.009561752988047808
sI9
F0.008565737051792829
sI10
F0.012151394422310757
sI11
F0.011553784860557768
sI12
F0.013346613545816732
sI13
F0.008964143426294821
sI14
F0.010159362549800797
sI15
F0.009362549800796812
sI16
F0.011354581673306772
sI17
F0.010159362549800797
sI18
F0.009561752988047808
sI19
F0.010956175298804782
sa(dp85
I0
F0.01195219123505976
sI1
F0.40179282868525895
sI2
F0.010159362549800797
sI3
F0.41673306772908364
sI4
F0.011553784860557768
sI5
F0.01055776892430279
sI6
F0.011155378486055778
sI7
F0.007171314741035857
sI8
F0.010358565737051793
sI9
F0.011155378486055778
sI10
F0.011155378486055778
sI11
F0.010159362549800797
sI12
F0.009362549800796812
sI13
F0.008764940239043825
sI14
F0.0099601593625498
sI15
F0.010358565737051793
sI16
F0.008167330677290837
sI17
F0.011553784860557768
sI18
F0.008167330677290837
sI19
F0.009760956175298804
sa(dp86
I0
F0.050199203187251
sI1
F0.04820717131474104
sI2
F0.04920318725099602
sI3
F0.043824701195219126
sI4
F0.04880478087649402
sI5
F0.04920318725099602
sI6
F0.04920318725099602
sI7
F0.04880478087649402
sI8
F0.055378486055776895
sI9
F0.05139442231075697
sI10
F0.050597609561752986
sI11
F0.04442231075697211
sI12
F0.05258964143426295
sI13
F0.05179282868525897
sI14
F0.04820717131474104
sI15
F0.051593625498007965
sI16
F0.04541832669322709
sI17
F0.054780876494023904
sI18
F0.052788844621513946
sI19
F0.05358565737051793
sa(dp87
I0
F0.044820717131474105
sI1
F0.04920318725099602
sI2
F0.04661354581673307
sI3
F0.04880478087649402
sI4
F0.04900398406374502
sI5
F0.04880478087649402
sI6
F0.045816733067729085
sI7
F0.050597609561752986
sI8
F0.04880478087649402
sI9
F0.05776892430278884
sI10
F0.04760956175298805
sI11
F0.04920318725099602
sI12
F0.054382470119521915
sI13
F0.051593625498007965
sI14
F0.05258964143426295
sI15
F0.04940239043824701
sI16
F0.053187250996015935
sI17
F0.04960159362549801
sI18
F0.051593625498007965
sI19
F0.050597609561752986
sa(dp88
I0
F0.008167330677290837
sI1
F0.010358565737051793
sI2
F0.009561752988047808
sI3
F0.4065737051792829
sI4
F0.009362549800796812
sI5
F0.40936254980079684
sI6
F0.009163346613545816
sI7
F0.010358565737051793
sI8
F0.010358565737051793
sI9
F0.010358565737051793
sI10
F0.01195219123505976
sI11
F0.008366533864541833
sI12
F0.008764940239043825
sI13
F0.009760956175298804
sI14
F0.01195219123505976
sI15
F0.013346613545816732
sI16
F0.0099601593625498
sI17
F0.011354581673306772
sI18
F0.011752988047808765
sI19
F0.009163346613545816
sa(dp89
I0
F0.009561752988047808
sI1
F0.009163346613545816
sI2
F0.009760956175298804
sI3
F0.008366533864541833
sI4
F0.012350597609561753
sI5
F0.011354581673306772
sI6
F0.013745019920318725
sI7
F0.008565737051792829
sI8
F0.009561752988047808
sI9
F0.010159362549800797
sI10
F0.010956175298804782
sI11
F0.008764940239043825
sI12
F0.010756972111553785
sI13
F0.011354581673306772
sI14
F0.010358565737051793
sI15
F0.009362549800796812
sI16
F0.40577689243027887
sI17
F0.4091633466135458
sI18
F0.0099601593625498
sI19
F0.010956175298804782
sa(dp90
I0
F0.012151394422310757
sI1
F0.008565737051792829
sI2
F0.01055776892430279
sI3
F0.008964143426294821
sI4
F0.010756972111553785
sI5
F0.010956175298804782
sI6
F0.009561752988047808
sI7
F0.008964143426294821
sI8
F0.008565737051792829
sI9
F0.0099601593625498
sI10
F0.010358565737051793
sI11
F0.010159362549800797
sI12
F0.008964143426294821
sI13
F0.011752988047808765
sI14
F0.008565737051792829
sI15
F0.012350597609561753
sI16
F0.8061752988047809
sI17
F0.009163346613545816
sI18
F0.011553784860557768
sI19
F0.01195219123505976
sa(dp91
I0
F0.010358565737051793
sI1
F0.010956175298804782
sI2
F0.007569721115537849
sI3
F0.011155378486055778
sI4
F0.0099601593625498
sI5
F0.012749003984063745
sI6
F0.010956175298804782
sI7
F0.007370517928286853
sI8
F0.011155378486055778
sI9
F0.011553784860557768
sI10
F0.011155378486055778
sI11
F0.010956175298804782
sI12
F0.8041832669322709
sI13
F0.007768924302788844
sI14
F0.008167330677290837
sI15
F0.007569721115537849
sI16
F0.01254980079681275
sI17
F0.011553784860557768
sI18
F0.011752988047808765
sI19
F0.01055776892430279
sa(dp92
I0
F0.046812749003984064
sI1
F0.05298804780876494
sI2
F0.05717131474103586
sI3
F0.05
sI4
F0.05179282868525897
sI5
F0.04780876494023904
sI6
F0.05139442231075697
sI7
F0.0549800796812749
sI8
F0.045816733067729085
sI9
F0.05039840637450199
sI10
F0.054382470119521915
sI11
F0.05258964143426295
sI12
F0.04760956175298805
sI13
F0.04223107569721116
sI14
F0.05179282868525897
sI15
F0.05039840637450199
sI16
F0.05358565737051793
sI17
F0.05079681274900399
sI18
F0.04043824701195219
sI19
F0.04701195219123506
sa(dp93
I0
F0.0099601593625498
sI1
F0.01195219123505976
sI2
F0.012749003984063745
sI3
F0.011553784860557768
sI4
F0.010956175298804782
sI5
F0.008764940239043825
sI6
F0.01254980079681275
sI7
F0.01055776892430279
sI8
F0.007171314741035857
sI9
F0.01055776892430279
sI10
F0.012151394422310757
sI11
F0.010756972111553785
sI12
F0.4033864541832669
sI13
F0.011752988047808765
sI14
F0.399402390438247
sI15
F0.009163346613545816
sI16
F0.012151394422310757
sI17
F0.008964143426294821
sI18
F0.012151394422310757
sI19
F0.013346613545816732
sa(dp94
I0
F0.05199203187250996
sI1
F0.04840637450199203
sI2
F0.04840637450199203
sI3
F0.0549800796812749
sI4
F0.054183266932270914
sI5
F0.050199203187251
sI6
F0.05597609561752988
sI7
F0.045219123505976094
sI8
F0.047410358565737054
sI9
F0.04820717131474104
sI10
F0.044820717131474105
sI11
F0.05936254980079681
sI12
F0.04960159362549801
sI13
F0.05338645418326693
sI14
F0.04302788844621514
sI15
F0.04880478087649402
sI16
F0.04840637450199203
sI17
F0.04541832669322709
sI18
F0.05239043824701195
sI19
F0.049800796812749
sa(dp95
I0
F0.010756972111553785
sI1
F0.009760956175298804
sI2
F0.010358565737051793
sI3
F0.01055776892430279
sI4
F0.0099601593625498
sI5
F0.01254980079681275
sI6
F0.011553784860557768
sI7
F0.010956175298804782
sI8
F0.010956175298804782
sI9
F0.01055776892430279
sI10
F0.01055776892430279
sI11
F0.009362549800796812
sI12
F0.010756972111553785
sI13
F0.011553784860557768
sI14
F0.009760956175298804
sI15
F0.010756972111553785
sI16
F0.008764940239043825
sI17
F0.01454183266932271
sI18
F0.7928286852589641
sI19
F0.013147410358565738
sa(dp96
I0
F0.04860557768924303
sI1
F0.04760956175298805
sI2
F0.05139442231075697
sI3
F0.05199203187250996
sI4
F0.04960159362549801
sI5
F0.04960159362549801
sI6
F0.05139442231075697
sI7
F0.05557768924302789
sI8
F0.05239043824701195
sI9
F0.04760956175298805
sI10
F0.05099601593625498
sI11
F0.050199203187251
sI12
F0.04900398406374502
sI13
F0.04721115537848605
sI14
F0.05079681274900399
sI15
F0.04661354581673307
sI16
F0.04880478087649402
sI17
F0.054183266932270914
sI18
F0.04442231075697211
sI19
F0.05199203187250996
sa(dp97
I0
F0.051195219123505976
sI1
F0.05657370517928287
sI2
F0.05
sI3
F0.05179282868525897
sI4
F0.04840637450199203
sI5
F0.046414342629482075
sI6
F0.047410358565737054
sI7
F0.05258964143426295
sI8
F0.046215139442231074
sI9
F0.05338645418326693
sI10
F0.050597609561752986
sI11
F0.054183266932270914
sI12
F0.05039840637450199
sI13
F0.04880478087649402
sI14
F0.04900398406374502
sI15
F0.04701195219123506
sI16
F0.04900398406374502
sI17
F0.04661354581673307
sI18
F0.04840637450199203
sI19
F0.05199203187250996
sa(dp98
I0
F0.008964143426294821
sI1
F0.009561752988047808
sI2
F0.01055776892430279
sI3
F0.007370517928286853
sI4
F0.011752988047808765
sI5
F0.008366533864541833
sI6
F0.41075697211155376
sI7
F0.010358565737051793
sI8
F0.4127490039840637
sI9
F0.008964143426294821
sI10
F0.01055776892430279
sI11
F0.009561752988047808
sI12
F0.009163346613545816
sI13
F0.008366533864541833
sI14
F0.008565737051792829
sI15
F0.011752988047808765
sI16
F0.010956175298804782
sI17
F0.011553784860557768
sI18
F0.007768924302788844
sI19
F0.012350597609561753
sa(dp99
I0
F0.010956175298804782
sI1
F0.011155378486055778
sI2
F0.009163346613545816
sI3
F0.011155378486055778
sI4
F0.010756972111553785
sI5
F0.400996015936255
sI6
F0.010756972111553785
sI7
F0.41394422310756973
sI8
F0.010756972111553785
sI9
F0.010756972111553785
sI10
F0.008964143426294821
sI11
F0.007569721115537849
sI12
F0.008167330677290837
sI13
F0.009760956175298804
sI14
F0.008764940239043825
sI15
F0.0099601593625498
sI16
F0.011354581673306772
sI17
F0.012350597609561753
sI18
F0.01195219123505976
sI19
F0.010756972111553785
sa(dp100
I0
F0.008565737051792829
sI1
F0.40717131474103585
sI2
F0.012151394422310757
sI3
F0.010956175298804782
sI4
F0.011354581673306772
sI5
F0.009561752988047808
sI6
F0.007370517928286853
sI7
F0.009362549800796812
sI8
F0.010159362549800797
sI9
F0.008565737051792829
sI10
F0.010956175298804782
sI11
F0.01055776892430279
sI12
F0.012350597609561753
sI13
F0.011752988047808765
sI14
F0.008764940239043825
sI15
F0.01055776892430279
sI16
F0.010756972111553785
sI17
F0.40896414342629483
sI18
F0.009163346613545816
sI19
F0.010956175298804782
sa(dp101
I0
F0.052788844621513946
sI1
F0.05079681274900399
sI2
F0.047410358565737054
sI3
F0.05258964143426295
sI4
F0.05199203187250996
sI5
F0.04721115537848605
sI6
F0.04760956175298805
sI7
F0.051593625498007965
sI8
F0.04701195219123506
sI9
F0.049800796812749
sI10
F0.04800796812749004
sI11
F0.052788844621513946
sI12
F0.05039840637450199
sI13
F0.04880478087649402
sI14
F0.049800796812749
sI15
F0.04820717131474104
sI16
F0.05258964143426295
sI17
F0.052788844621513946
sI18
F0.04860557768924303
sI19
F0.04920318725099602
sa(dp102
I0
F0.01055776892430279
sI1
F0.010756972111553785
sI2
F0.0099601593625498
sI3
F0.009561752988047808
sI4
F0.010756972111553785
sI5
F0.008764940239043825
sI6
F0.01055776892430279
sI7
F0.011155378486055778
sI8
F0.0099601593625498
sI9
F0.011752988047808765
sI10
F0.011155378486055778
sI11
F0.011354581673306772
sI12
F0.008964143426294821
sI13
F0.800398406374502
sI14
F0.01055776892430279
sI15
F0.010159362549800797
sI16
F0.013147410358565738
sI17
F0.012151394422310757
sI18
F0.010159362549800797
sI19
F0.008167330677290837
sa(dp103
I0
F0.008764940239043825
sI1
F0.010956175298804782
sI2
F0.011155378486055778
sI3
F0.010358565737051793
sI4
F0.010358565737051793
sI5
F0.010956175298804782
sI6
F0.011553784860557768
sI7
F0.008565737051792829
sI8
F0.4095617529880478
sI9
F0.013346613545816732
sI10
F0.4049800796812749
sI11
F0.012151394422310757
sI12
F0.009362549800796812
sI13
F0.007370517928286853
sI14
F0.009362549800796812
sI15
F0.009362549800796812
sI16
F0.009561752988047808
sI17
F0.011553784860557768
sI18
F0.009561752988047808
sI19
F0.011155378486055778
sa(dp104
I0
F0.010956175298804782
sI1
F0.009362549800796812
sI2
F0.010956175298804782
sI3
F0.009362549800796812
sI4
F0.009760956175298804
sI5
F0.010756972111553785
sI6
F0.011752988047808765
sI7
F0.008167330677290837
sI8
F0.4055776892430279
sI9
F0.010956175298804782
sI10
F0.40936254980079684
sI11
F0.010956175298804782
sI12
F0.007569721115537849
sI13
F0.010956175298804782
sI14
F0.010358565737051793
sI15
F0.012350597609561753
sI16
F0.008964143426294821
sI17
F0.01254980079681275
sI18
F0.009163346613545816
sI19
F0.010159362549800797
sa(dp105
I0
F0.011155378486055778
sI1
F0.011752988047808765
sI2
F0.011155378486055778
sI3
F0.009163346613545816
sI4
F0.008764940239043825
sI5
F0.011553784860557768
sI6
F0.011155378486055778
sI7
F0.009163346613545816
sI8
F0.008366533864541833
sI9
F0.010159362549800797
sI10
F0.009362549800796812
sI11
F0.7906374501992032
sI12
F0.013346613545816732
sI13
F0.014342629482071713
sI14
F0.01055776892430279
sI15
F0.012948207171314742
sI16
F0.010956175298804782
sI17
F0.011354581673306772
sI18
F0.011155378486055778
sI19
F0.012948207171314742
sa(dp106
I0
F0.008964143426294821
sI1
F0.01195219123505976
sI2
F0.009561752988047808
sI3
F0.009561752988047808
sI4
F0.01454183266932271
sI5
F0.011553784860557768
sI6
F0.010159362549800797
sI7
F0.009561752988047808
sI8
F0.009760956175298804
sI9
F0.0099601593625498
sI10
F0.010956175298804782
sI11
F0.009362549800796812
sI12
F0.41752988047808764
sI13
F0.010756972111553785
sI14
F0.008565737051792829
sI15
F0.008366533864541833
sI16
F0.400796812749004
sI17
F0.0099601593625498
sI18
F0.009561752988047808
sI19
F0.008565737051792829
sa(dp107
I0
F0.01055776892430279
sI1
F0.012749003984063745
sI2
F0.012350597609561753
sI3
F0.011354581673306772
sI4
F0.0099601593625498
sI5
F0.008366533864541833
sI6
F0.009561752988047808
sI7
F0.008366533864541833
sI8
F0.4073705179282869
sI9
F0.009760956175298804
sI10
F0.0099601593625498
sI11
F0.011553784860557768
sI12
F0.40936254980079684
sI13
F0.010159362549800797
sI14
F0.009760956175298804
sI15
F0.007768924302788844
sI16
F0.011354581673306772
sI17
F0.009163346613545816
sI18
F0.009561752988047808
sI19
F0.010956175298804782
sa(dp108
I0
F0.009362549800796812
sI1
F0.012749003984063745
sI2
F0.009163346613545816
sI3
F0.009760956175298804
sI4
F0.013147410358565738
sI5
F0.009163346613545816
sI6
F0.010956175298804782
sI7
F0.009362549800796812
sI8
F0.009760956175298804
sI9
F0.010159362549800797
sI10
F0.4069721115537849
sI11
F0.009760956175298804
sI12
F0.0099601593625498
sI13
F0.012350597609561753
sI14
F0.40796812749003986
sI15
F0.009362549800796812
sI16
F0.010358565737051793
sI17
F0.009163346613545816
sI18
F0.010956175298804782
sI19
F0.009561752988047808
sa(dp109
I0
F0.011155378486055778
sI1
F0.012350597609561753
sI2
F0.008167330677290837
sI3
F0.009561752988047808
sI4
F0.008764940239043825
sI5
F0.009561752988047808
sI6
F0.007569721115537849
sI7
F0.008764940239043825
sI8
F0.009163346613545816
sI9
F0.4145418326693227
sI10
F0.0069721115537848604
sI11
F0.4091633466135458
sI12
F0.011752988047808765
sI13
F0.011354581673306772
sI14
F0.011354581673306772
sI15
F0.009163346613545816
sI16
F0.011155378486055778
sI17
F0.0099601593625498
sI18
F0.01055776892430279
sI19
F0.008964143426294821
sa(dp110
I0
F0.00796812749003984
sI1
F0.013944223107569721
sI2
F0.009561752988047808
sI3
F0.40816733067729083
sI4
F0.009163346613545816
sI5
F0.009760956175298804
sI6
F0.010956175298804782
sI7
F0.4109561752988048
sI8
F0.009362549800796812
sI9
F0.01055776892430279
sI10
F0.01055776892430279
sI11
F0.010956175298804782
sI12
F0.011354581673306772
sI13
F0.007768924302788844
sI14
F0.009561752988047808
sI15
F0.008167330677290837
sI16
F0.008565737051792829
sI17
F0.012749003984063745
sI18
F0.0099601593625498
sI19
F0.0099601593625498
sa(dp111
I0
F0.01055776892430279
sI1
F0.012350597609561753
sI2
F0.00796812749003984
sI3
F0.009362549800796812
sI4
F0.40577689243027887
sI5
F0.010159362549800797
sI6
F0.008366533864541833
sI7
F0.012151394422310757
sI8
F0.41254980079681275
sI9
F0.009760956175298804
sI10
F0.009760956175298804
sI11
F0.010756972111553785
sI12
F0.01055776892430279
sI13
F0.010756972111553785
sI14
F0.009362549800796812
sI15
F0.008764940239043825
sI16
F0.01055776892430279
sI17
F0.009362549800796812
sI18
F0.0099601593625498
sI19
F0.011155378486055778
sa(dp112
I0
F0.011155378486055778
sI1
F0.009561752988047808
sI2
F0.010956175298804782
sI3
F0.012948207171314742
sI4
F0.011752988047808765
sI5
F0.00796812749003984
sI6
F0.01055776892430279
sI7
F0.011155378486055778
sI8
F0.009561752988047808
sI9
F0.01254980079681275
sI10
F0.009362549800796812
sI11
F0.01055776892430279
sI12
F0.011553784860557768
sI13
F0.010159362549800797
sI14
F0.011553784860557768
sI15
F0.0099601593625498
sI16
F0.01454183266932271
sI17
F0.7916334661354582
sI18
F0.012151394422310757
sI19
F0.010358565737051793
sa(dp113
I0
F0.012350597609561753
sI1
F0.008764940239043825
sI2
F0.008964143426294821
sI3
F0.012350597609561753
sI4
F0.0099601593625498
sI5
F0.00796812749003984
sI6
F0.011553784860557768
sI7
F0.010358565737051793
sI8
F0.009362549800796812
sI9
F0.009561752988047808
sI10
F0.011553784860557768
sI11
F0.012350597609561753
sI12
F0.011155378486055778
sI13
F0.798804780876494
sI14
F0.01055776892430279
sI15
F0.012350597609561753
sI16
F0.010358565737051793
sI17
F0.010358565737051793
sI18
F0.008167330677290837
sI19
F0.013147410358565738
sa(dp114
I0
F0.011354581673306772
sI1
F0.013147410358565738
sI2
F0.008167330677290837
sI3
F0.010358565737051793
sI4
F0.010159362549800797
sI5
F0.009362549800796812
sI6
F0.41693227091633467
sI7
F0.006772908366533864
sI8
F0.40219123505976095
sI9
F0.009561752988047808
sI10
F0.010956175298804782
sI11
F0.010358565737051793
sI12
F0.011354581673306772
sI13
F0.007768924302788844
sI14
F0.011155378486055778
sI15
F0.011155378486055778
sI16
F0.010358565737051793
sI17
F0.0099601593625498
sI18
F0.010358565737051793
sI19
F0.008565737051792829
sa(dp115
I0
F0.009561752988047808
sI1
F0.798406374501992
sI2
F0.012749003984063745
sI3
F0.011553784860557768
sI4
F0.009760956175298804
sI5
F0.010756972111553785
sI6
F0.01055776892430279
sI7
F0.011354581673306772
sI8
F0.01055776892430279
sI9
F0.008764940239043825
sI10
F0.010358565737051793
sI11
F0.011354581673306772
sI12
F0.009760956175298804
sI13
F0.012350597609561753
sI14
F0.009163346613545816
sI15
F0.009760956175298804
sI16
F0.009163346613545816
sI17
F0.012749003984063745
sI18
F0.011752988047808765
sI19
F0.009561752988047808
sa(dp116
I0
F0.050597609561752986
sI1
F0.051195219123505976
sI2
F0.045816733067729085
sI3
F0.05458167330677291
sI4
F0.04760956175298805
sI5
F0.04940239043824701
sI6
F0.046215139442231074
sI7
F0.04920318725099602
sI8
F0.049800796812749
sI9
F0.051195219123505976
sI10
F0.05358565737051793
sI11
F0.052788844621513946
sI12
F0.04780876494023904
sI13
F0.05099601593625498
sI14
F0.05398406374501992
sI15
F0.04820717131474104
sI16
F0.04920318725099602
sI17
F0.05239043824701195
sI18
F0.04860557768924303
sI19
F0.046812749003984064
sa(dp117
I0
F0.05458167330677291
sI1
F0.052788844621513946
sI2
F0.04900398406374502
sI3
F0.04780876494023904
sI4
F0.049800796812749
sI5
F0.046414342629482075
sI6
F0.04940239043824701
sI7
F0.04840637450199203
sI8
F0.04541832669322709
sI9
F0.05358565737051793
sI10
F0.04880478087649402
sI11
F0.05079681274900399
sI12
F0.051195219123505976
sI13
F0.05099601593625498
sI14
F0.04661354581673307
sI15
F0.04920318725099602
sI16
F0.05298804780876494
sI17
F0.055776892430278883
sI18
F0.044223107569721115
sI19
F0.052191235059760956
sa(dp118
I0
F0.04860557768924303
sI1
F0.05258964143426295
sI2
F0.046414342629482075
sI3
F0.04820717131474104
sI4
F0.04920318725099602
sI5
F0.04840637450199203
sI6
F0.04800796812749004
sI7
F0.052191235059760956
sI8
F0.049800796812749
sI9
F0.05617529880478088
sI10
F0.04561752988047809
sI11
F0.05
sI12
F0.043625498007968125
sI13
F0.046414342629482075
sI14
F0.055378486055776895
sI15
F0.05338645418326693
sI16
F0.05079681274900399
sI17
F0.04960159362549801
sI18
F0.055378486055776895
sI19
F0.050199203187251
sa(dp119
I0
F0.0099601593625498
sI1
F0.009362549800796812
sI2
F0.009362549800796812
sI3
F0.01055776892430279
sI4
F0.009561752988047808
sI5
F0.41215139442231075
sI6
F0.009362549800796812
sI7
F0.41394422310756973
sI8
F0.010159362549800797
sI9
F0.010358565737051793
sI10
F0.008366533864541833
sI11
F0.01055776892430279
sI12
F0.009561752988047808
sI13
F0.010956175298804782
sI14
F0.009561752988047808
sI15
F0.008565737051792829
sI16
F0.009362549800796812
sI17
F0.008366533864541833
sI18
F0.010159362549800797
sI19
F0.009760956175298804
sa(dp120
I0
F0.01055776892430279
sI1
F0.012948207171314742
sI2
F0.011354581673306772
sI3
F0.01055776892430279
sI4
F0.009362549800796812
sI5
F0.007768924302788844
sI6
F0.010358565737051793
sI7
F0.008764940239043825
sI8
F0.011354581673306772
sI9
F0.00796812749003984
sI10
F0.009760956175298804
sI11
F0.010756972111553785
sI12
F0.009561752988047808
sI13
F0.011752988047808765
sI14
F0.4147410358565737
sI15
F0.011553784860557768
sI16
F0.40298804780876496
sI17
F0.007569721115537849
sI18
F0.010159362549800797
sI19
F0.010159362549800797
sa(dp121
I0
F0.01055776892430279
sI1
F0.40258964143426296
sI2
F0.012749003984063745
sI3
F0.012749003984063745
sI4
F0.009163346613545816
sI5
F0.008764940239043825
sI6
F0.01055776892430279
sI7
F0.012749003984063745
sI8
F0.012350597609561753
sI9
F0.010159362549800797
sI10
F0.01195219123505976
sI11
F0.008764940239043825
sI12
F0.010756972111553785
sI13
F0.008366533864541833
sI14
F0.010159362549800797
sI15
F0.010756972111553785
sI16
F0.008764940239043825
sI17
F0.008964143426294821
sI18
F0.008764940239043825
sI19
F0.4103585657370518
sa(dp122
I0
F0.05039840637450199
sI1
F0.04840637450199203
sI2
F0.04820717131474104
sI3
F0.05039840637450199
sI4
F0.04760956175298805
sI5
F0.04920318725099602
sI6
F0.04860557768924303
sI7
F0.05199203187250996
sI8
F0.045816733067729085
sI9
F0.042629482071713146
sI10
F0.05239043824701195
sI11
F0.05298804780876494
sI12
F0.05338645418326693
sI13
F0.046215139442231074
sI14
F0.05298804780876494
sI15
F0.050199203187251
sI16
F0.055776892430278883
sI17
F0.05358565737051793
sI18
F0.04880478087649402
sI19
F0.05039840637450199
sa(dp123
I0
F0.054780876494023904
sI1
F0.04601593625498008
sI2
F0.054780876494023904
sI3
F0.04860557768924303
sI4
F0.05099601593625498
sI5
F0.052191235059760956
sI6
F0.04701195219123506
sI7
F0.05139442231075697
sI8
F0.05
sI9
F0.04960159362549801
sI10
F0.045816733067729085
sI11
F0.054780876494023904
sI12
F0.051195219123505976
sI13
F0.04860557768924303
sI14
F0.05338645418326693
sI15
F0.042629482071713146
sI16
F0.04442231075697211
sI17
F0.04960159362549801
sI18
F0.05239043824701195
sI19
F0.05179282868525897
sa(dp124
I0
F0.012151394422310757
sI1
F0.010756972111553785
sI2
F0.013745019920318725
sI3
F0.7990039840637451
sI4
F0.011752988047808765
sI5
F0.010956175298804782
sI6
F0.008964143426294821
sI7
F0.01055776892430279
sI8
F0.008764940239043825
sI9
F0.01055776892430279
sI10
F0.011155378486055778
sI11
F0.009760956175298804
sI12
F0.010159362549800797
sI13
F0.007768924302788844
sI14
F0.009163346613545816
sI15
F0.01055776892430279
sI16
F0.011155378486055778
sI17
F0.013346613545816732
sI18
F0.011354581673306772
sI19
F0.008366533864541833
sa(dp125
I0
F0.04780876494023904
sI1
F0.052788844621513946
sI2
F0.04800796812749004
sI3
F0.047410358565737054
sI4
F0.050597609561752986
sI5
F0.052788844621513946
sI6
F0.05079681274900399
sI7
F0.05
sI8
F0.05358565737051793
sI9
F0.05039840637450199
sI10
F0.05597609561752988
sI11
F0.05298804780876494
sI12
F0.04442231075697211
sI13
F0.05239043824701195
sI14
F0.047410358565737054
sI15
F0.04820717131474104
sI16
F0.04800796812749004
sI17
F0.05179282868525897
sI18
F0.043227091633466136
sI19
F0.05139442231075697
sa(dp126
I0
F0.011752988047808765
sI1
F0.009760956175298804
sI2
F0.009561752988047808
sI3
F0.012151394422310757
sI4
F0.009760956175298804
sI5
F0.01055776892430279
sI6
F0.010358565737051793
sI7
F0.012948207171314742
sI8
F0.010956175298804782
sI9
F0.009163346613545816
sI10
F0.012151394422310757
sI11
F0.009163346613545816
sI12
F0.010956175298804782
sI13
F0.010358565737051793
sI14
F0.009561752988047808
sI15
F0.011752988047808765
sI16
F0.011553784860557768
sI17
F0.008366533864541833
sI18
F0.798804780876494
sI19
F0.010358565737051793
sa(dp127
I0
F0.008964143426294821
sI1
F0.010159362549800797
sI2
F0.011752988047808765
sI3
F0.008167330677290837
sI4
F0.008964143426294821
sI5
F0.007370517928286853
sI6
F0.009362549800796812
sI7
F0.011155378486055778
sI8
F0.010358565737051793
sI9
F0.010956175298804782
sI10
F0.010756972111553785
sI11
F0.008565737051792829
sI12
F0.011752988047808765
sI13
F0.008964143426294821
sI14
F0.011354581673306772
sI15
F0.009561752988047808
sI16
F0.4103585657370518
sI17
F0.010756972111553785
sI18
F0.4091633466135458
sI19
F0.011553784860557768
sa(dp128
I0
F0.014741035856573706
sI1
F0.010956175298804782
sI2
F0.01055776892430279
sI3
F0.011155378486055778
sI4
F0.011553784860557768
sI5
F0.010358565737051793
sI6
F0.7884462151394422
sI7
F0.007768924302788844
sI8
F0.008764940239043825
sI9
F0.013745019920318725
sI10
F0.011752988047808765
sI11
F0.010358565737051793
sI12
F0.012749003984063745
sI13
F0.010956175298804782
sI14
F0.011553784860557768
sI15
F0.009561752988047808
sI16
F0.011354581673306772
sI17
F0.01055776892430279
sI18
F0.01195219123505976
sI19
F0.011155378486055778
sa(dp129
I0
F0.009362549800796812
sI1
F0.010358565737051793
sI2
F0.4127490039840637
sI3
F0.010358565737051793
sI4
F0.011553784860557768
sI5
F0.00796812749003984
sI6
F0.009362549800796812
sI7
F0.01055776892430279
sI8
F0.009362549800796812
sI9
F0.012948207171314742
sI10
F0.009760956175298804
sI11
F0.008167330677290837
sI12
F0.008565737051792829
sI13
F0.013346613545816732
sI14
F0.013545816733067729
sI15
F0.01055776892430279
sI16
F0.008167330677290837
sI17
F0.008167330677290837
sI18
F0.4063745019920319
sI19
F0.008764940239043825
sa(dp130
I0
F0.009163346613545816
sI1
F0.011354581673306772
sI2
F0.008764940239043825
sI3
F0.010159362549800797
sI4
F0.009561752988047808
sI5
F0.4045816733067729
sI6
F0.011155378486055778
sI7
F0.011354581673306772
sI8
F0.011354581673306772
sI9
F0.4097609561752988
sI10
F0.0099601593625498
sI11
F0.012749003984063745
sI12
F0.009163346613545816
sI13
F0.011354581673306772
sI14
F0.009561752988047808
sI15
F0.0099601593625498
sI16
F0.009163346613545816
sI17
F0.008764940239043825
sI18
F0.01254980079681275
sI19
F0.009561752988047808
sa(dp131
I0
F0.008964143426294821
sI1
F0.009362549800796812
sI2
F0.011553784860557768
sI3
F0.0099601593625498
sI4
F0.011354581673306772
sI5
F0.0099601593625498
sI6
F0.01195219123505976
sI7
F0.012948207171314742
sI8
F0.012350597609561753
sI9
F0.013147410358565738
sI10
F0.014143426294820717
sI11
F0.0099601593625498
sI12
F0.008565737051792829
sI13
F0.7932270916334662
sI14
F0.010756972111553785
sI15
F0.011155378486055778
sI16
F0.009362549800796812
sI17
F0.012749003984063745
sI18
F0.00796812749003984
sI19
F0.01055776892430279
sa(dp132
I0
F0.011752988047808765
sI1
F0.010159362549800797
sI2
F0.01055776892430279
sI3
F0.0099601593625498
sI4
F0.010358565737051793
sI5
F0.011752988047808765
sI6
F0.010756972111553785
sI7
F0.009760956175298804
sI8
F0.010756972111553785
sI9
F0.009362549800796812
sI10
F0.01195219123505976
sI11
F0.797808764940239
sI12
F0.01195219123505976
sI13
F0.013346613545816732
sI14
F0.010159362549800797
sI15
F0.0099601593625498
sI16
F0.01055776892430279
sI17
F0.011354581673306772
sI18
F0.008964143426294821
sI19
F0.008764940239043825
sa(dp133
I0
F0.04960159362549801
sI1
F0.04840637450199203
sI2
F0.04900398406374502
sI3
F0.04601593625498008
sI4
F0.04800796812749004
sI5
F0.055378486055776895
sI6
F0.04561752988047809
sI7
F0.05179282868525897
sI8
F0.051195219123505976
sI9
F0.05717131474103586
sI10
F0.045219123505976094
sI11
F0.054382470119521915
sI12
F0.044223107569721115
sI13
F0.05358565737051793
sI14
F0.04760956175298805
sI15
F0.054382470119521915
sI16
F0.04940239043824701
sI17
F0.046812749003984064
sI18
F0.05597609561752988
sI19
F0.046215139442231074
sa(dp134
I0
F0.010159362549800797
sI1
F0.01055776892430279
sI2
F0.8043824701195219
sI3
F0.01055776892430279
sI4
F0.01195219123505976
sI5
F0.011354581673306772
sI6
F0.0099601593625498
sI7
F0.011155378486055778
sI8
F0.00796812749003984
sI9
F0.0099601593625498
sI10
F0.0099601593625498
sI11
F0.01055776892430279
sI12
F0.01055776892430279
sI13
F0.008565737051792829
sI14
F0.011553784860557768
sI15
F0.009561752988047808
sI16
F0.009760956175298804
sI17
F0.011553784860557768
sI18
F0.011553784860557768
sI19
F0.008366533864541833
sa(dp135
I0
F0.049800796812749
sI1
F0.04661354581673307
sI2
F0.05039840637450199
sI3
F0.04661354581673307
sI4
F0.04960159362549801
sI5
F0.050199203187251
sI6
F0.053187250996015935
sI7
F0.05717131474103586
sI8
F0.05139442231075697
sI9
F0.049800796812749
sI10
F0.04820717131474104
sI11
F0.04820717131474104
sI12
F0.05916334661354582
sI13
F0.05099601593625498
sI14
F0.04920318725099602
sI15
F0.04800796812749004
sI16
F0.050199203187251
sI17
F0.045219123505976094
sI18
F0.05099601593625498
sI19
F0.0450199203187251
sa(dp136
I0
F0.011553784860557768
sI1
F0.013147410358565738
sI2
F0.009163346613545816
sI3
F0.010358565737051793
sI4
F0.41713147410358564
sI5
F0.008565737051792829
sI6
F0.010956175298804782
sI7
F0.009163346613545816
sI8
F0.40258964143426296
sI9
F0.007768924302788844
sI10
F0.0099601593625498
sI11
F0.008764940239043825
sI12
F0.010358565737051793
sI13
F0.007768924302788844
sI14
F0.01055776892430279
sI15
F0.009760956175298804
sI16
F0.010756972111553785
sI17
F0.010956175298804782
sI18
F0.009760956175298804
sI19
F0.010956175298804782
sa(dp137
I0
F0.011354581673306772
sI1
F0.007569721115537849
sI2
F0.010956175298804782
sI3
F0.009561752988047808
sI4
F0.009362549800796812
sI5
F0.7980079681274901
sI6
F0.011553784860557768
sI7
F0.011752988047808765
sI8
F0.009561752988047808
sI9
F0.0099601593625498
sI10
F0.009561752988047808
sI11
F0.011354581673306772
sI12
F0.012151394422310757
sI13
F0.0099601593625498
sI14
F0.010756972111553785
sI15
F0.011752988047808765
sI16
F0.01055776892430279
sI17
F0.009163346613545816
sI18
F0.012151394422310757
sI19
F0.012948207171314742
sa(dp138
I0
F0.011155378486055778
sI1
F0.011752988047808765
sI2
F0.7924302788844622
sI3
F0.010159362549800797
sI4
F0.009362549800796812
sI5
F0.012151394422310757
sI6
F0.008366533864541833
sI7
F0.014143426294820717
sI8
F0.011155378486055778
sI9
F0.012749003984063745
sI10
F0.010159362549800797
sI11
F0.008366533864541833
sI12
F0.01254980079681275
sI13
F0.008764940239043825
sI14
F0.009163346613545816
sI15
F0.01055776892430279
sI16
F0.011354581673306772
sI17
F0.013147410358565738
sI18
F0.011155378486055778
sI19
F0.011354581673306772
sa(dp139
I0
F0.04940239043824701
sI1
F0.051593625498007965
sI2
F0.04960159362549801
sI3
F0.046812749003984064
sI4
F0.049800796812749
sI5
F0.05
sI6
F0.04940239043824701
sI7
F0.04960159362549801
sI8
F0.04721115537848605
sI9
F0.04900398406374502
sI10
F0.05
sI11
F0.05338645418326693
sI12
F0.05338645418326693
sI13
F0.052788844621513946
sI14
F0.04601593625498008
sI15
F0.052788844621513946
sI16
F0.049800796812749
sI17
F0.05139442231075697
sI18
F0.054183266932270914
sI19
F0.043824701195219126
sa(dp140
I0
F0.04721115537848605
sI1
F0.05458167330677291
sI2
F0.04900398406374502
sI3
F0.05239043824701195
sI4
F0.04760956175298805
sI5
F0.04541832669322709
sI6
F0.04760956175298805
sI7
F0.04661354581673307
sI8
F0.05139442231075697
sI9
F0.05358565737051793
sI10
F0.05398406374501992
sI11
F0.049800796812749
sI12
F0.05597609561752988
sI13
F0.04780876494023904
sI14
F0.05079681274900399
sI15
F0.050199203187251
sI16
F0.04900398406374502
sI17
F0.046812749003984064
sI18
F0.052788844621513946
sI19
F0.047410358565737054
sa(dp141
I0
F0.04820717131474104
sI1
F0.05239043824701195
sI2
F0.05338645418326693
sI3
F0.054780876494023904
sI4
F0.04820717131474104
sI5
F0.046414342629482075
sI6
F0.04661354581673307
sI7
F0.05099601593625498
sI8
F0.04880478087649402
sI9
F0.046812749003984064
sI10
F0.05179282868525897
sI11
F0.05
sI12
F0.04840637450199203
sI13
F0.05398406374501992
sI14
F0.04920318725099602
sI15
F0.04601593625498008
sI16
F0.04840637450199203
sI17
F0.05179282868525897
sI18
F0.05139442231075697
sI19
F0.05239043824701195
sa(dp142
I0
F0.012749003984063745
sI1
F0.01454183266932271
sI2
F0.013147410358565738
sI3
F0.011553784860557768
sI4
F0.010956175298804782
sI5
F0.009561752988047808
sI6
F0.013147410358565738
sI7
F0.010756972111553785
sI8
F0.011553784860557768
sI9
F0.0099601593625498
sI10
F0.010358565737051793
sI11
F0.010956175298804782
sI12
F0.01195219123505976
sI13
F0.010956175298804782
sI14
F0.010756972111553785
sI15
F0.011553784860557768
sI16
F0.007768924302788844
sI17
F0.7896414342629482
sI18
F0.008366533864541833
sI19
F0.009760956175298804
sa(dp143
I0
F0.012948207171314742
sI1
F0.006573705179282869
sI2
F0.010756972111553785
sI3
F0.8173306772908366
sI4
F0.010159362549800797
sI5
F0.009362549800796812
sI6
F0.009163346613545816
sI7
F0.01055776892430279
sI8
F0.009561752988047808
sI9
F0.008964143426294821
sI10
F0.011155378486055778
sI11
F0.0099601593625498
sI12
F0.010956175298804782
sI13
F0.007768924302788844
sI14
F0.009362549800796812
sI15
F0.009561752988047808
sI16
F0.009760956175298804
sI17
F0.008366533864541833
sI18
F0.008964143426294821
sI19
F0.008764940239043825
sa(dp144
I0
F0.01195219123505976
sI1
F0.007569721115537849
sI2
F0.013346613545816732
sI3
F0.009362549800796812
sI4
F0.008565737051792829
sI5
F0.010956175298804782
sI6
F0.010159362549800797
sI7
F0.0099601593625498
sI8
F0.011354581673306772
sI9
F0.008167330677290837
sI10
F0.009163346613545816
sI11
F0.009760956175298804
sI12
F0.010358565737051793
sI13
F0.0099601593625498
sI14
F0.010159362549800797
sI15
F0.40199203187251
sI16
F0.009163346613545816
sI17
F0.013147410358565738
sI18
F0.010358565737051793
sI19
F0.4145418326693227
sa(dp145
I0
F0.008964143426294821
sI1
F0.012151394422310757
sI2
F0.011354581673306772
sI3
F0.011155378486055778
sI4
F0.011752988047808765
sI5
F0.010756972111553785
sI6
F0.799203187250996
sI7
F0.008167330677290837
sI8
F0.010756972111553785
sI9
F0.008167330677290837
sI10
F0.008366533864541833
sI11
F0.0099601593625498
sI12
F0.01055776892430279
sI13
F0.008565737051792829
sI14
F0.013944223107569721
sI15
F0.008565737051792829
sI16
F0.011752988047808765
sI17
F0.011553784860557768
sI18
F0.011752988047808765
sI19
F0.01254980079681275
sa(dp146
I0
F0.010756972111553785
sI1
F0.009561752988047808
sI2
F0.009760956175298804
sI3
F0.008764940239043825
sI4
F0.010756972111553785
sI5
F0.008764940239043825
sI6
F0.010358565737051793
sI7
F0.009362549800796812
sI8
F0.009362549800796812
sI9
F0.012151394422310757
sI10
F0.40239043824701193
sI11
F0.42330677290836655
sI12
F0.009362549800796812
sI13
F0.009362549800796812
sI14
F0.010358565737051793
sI15
F0.009561752988047808
sI16
F0.009760956175298804
sI17
F0.008764940239043825
sI18
F0.009760956175298804
sI19
F0.007768924302788844
sa(dp147
I0
F0.010159362549800797
sI1
F0.011553784860557768
sI2
F0.008764940239043825
sI3
F0.010358565737051793
sI4
F0.008167330677290837
sI5
F0.009561752988047808
sI6
F0.009362549800796812
sI7
F0.01195219123505976
sI8
F0.0099601593625498
sI9
F0.01195219123505976
sI10
F0.011155378486055778
sI11
F0.009362549800796812
sI12
F0.010756972111553785
sI13
F0.009362549800796812
sI14
F0.011752988047808765
sI15
F0.013147410358565738
sI16
F0.009561752988047808
sI17
F0.011752988047808765
sI18
F0.8025896414342629
sI19
F0.008764940239043825
sa(dp148
I0
F0.04820717131474104
sI1
F0.05199203187250996
sI2
F0.049800796812749
sI3
F0.05557768924302789
sI4
F0.05099601593625498
sI5
F0.04960159362549801
sI6
F0.046215139442231074
sI7
F0.04800796812749004
sI8
F0.050199203187251
sI9
F0.051593625498007965
sI10
F0.04840637450199203
sI11
F0.04780876494023904
sI12
F0.04800796812749004
sI13
F0.04860557768924303
sI14
F0.05079681274900399
sI15
F0.050199203187251
sI16
F0.05039840637450199
sI17
F0.053187250996015935
sI18
F0.05298804780876494
sI19
F0.047410358565737054
sa(dp149
I0
F0.010358565737051793
sI1
F0.012749003984063745
sI2
F0.0099601593625498
sI3
F0.011752988047808765
sI4
F0.011553784860557768
sI5
F0.01055776892430279
sI6
F0.009760956175298804
sI7
F0.009362549800796812
sI8
F0.008565737051792829
sI9
F0.007768924302788844
sI10
F0.010956175298804782
sI11
F0.40677290836653385
sI12
F0.009362549800796812
sI13
F0.008764940239043825
sI14
F0.010159362549800797
sI15
F0.4147410358565737
sI16
F0.009163346613545816
sI17
F0.007569721115537849
sI18
F0.008565737051792829
sI19
F0.011553784860557768
sa(dp150
I0
F0.008565737051792829
sI1
F0.007370517928286853
sI2
F0.010956175298804782
sI3
F0.011354581673306772
sI4
F0.010358565737051793
sI5
F0.011354581673306772
sI6
F0.011354581673306772
sI7
F0.009163346613545816
sI8
F0.008764940239043825
sI9
F0.01055776892430279
sI10
F0.010358565737051793
sI11
F0.010956175298804782
sI12
F0.4137450199203187
sI13
F0.40298804780876496
sI14
F0.009760956175298804
sI15
F0.007171314741035857
sI16
F0.01254980079681275
sI17
F0.011155378486055778
sI18
F0.011155378486055778
sI19
F0.010358565737051793
sa(dp151
I0
F0.01195219123505976
sI1
F0.012948207171314742
sI2
F0.010358565737051793
sI3
F0.009561752988047808
sI4
F0.011752988047808765
sI5
F0.011553784860557768
sI6
F0.010159362549800797
sI7
F0.011553784860557768
sI8
F0.798804780876494
sI9
F0.010756972111553785
sI10
F0.011155378486055778
sI11
F0.007768924302788844
sI12
F0.012948207171314742
sI13
F0.011752988047808765
sI14
F0.010159362549800797
sI15
F0.00796812749003984
sI16
F0.011752988047808765
sI17
F0.00796812749003984
sI18
F0.01055776892430279
sI19
F0.008565737051792829
sa(dp152
I0
F0.05258964143426295
sI1
F0.051195219123505976
sI2
F0.0450199203187251
sI3
F0.05458167330677291
sI4
F0.04541832669322709
sI5
F0.05338645418326693
sI6
F0.0549800796812749
sI7
F0.04701195219123506
sI8
F0.046414342629482075
sI9
F0.046812749003984064
sI10
F0.04820717131474104
sI11
F0.055378486055776895
sI12
F0.04840637450199203
sI13
F0.04960159362549801
sI14
F0.05099601593625498
sI15
F0.05298804780876494
sI16
F0.04960159362549801
sI17
F0.05039840637450199
sI18
F0.05099601593625498
sI19
F0.04601593625498008
sa(dp153
I0
F0.05199203187250996
sI1
F0.046215139442231074
sI2
F0.05079681274900399
sI3
F0.05099601593625498
sI4
F0.046812749003984064
sI5
F0.04900398406374502
sI6
F0.053784860557768925
sI7
F0.04860557768924303
sI8
F0.050597609561752986
sI9
F0.043625498007968125
sI10
F0.04601593625498008
sI11
F0.045816733067729085
sI12
F0.05617529880478088
sI13
F0.045816733067729085
sI14
F0.054780876494023904
sI15
F0.05199203187250996
sI16
F0.04820717131474104
sI17
F0.055378486055776895
sI18
F0.04880478087649402
sI19
F0.05458167330677291
sa(dp154
I0
F0.04800796812749004
sI1
F0.050597609561752986
sI2
F0.051593625498007965
sI3
F0.055378486055776895
sI4
F0.046215139442231074
sI5
F0.051195219123505976
sI6
F0.04462151394422311
sI7
F0.047410358565737054
sI8
F0.051593625498007965
sI9
F0.04960159362549801
sI10
F0.05677290836653386
sI11
F0.05717131474103586
sI12
F0.04940239043824701
sI13
F0.0450199203187251
sI14
F0.05039840637450199
sI15
F0.04920318725099602
sI16
F0.046414342629482075
sI17
F0.054183266932270914
sI18
F0.04302788844621514
sI19
F0.052191235059760956
sa(dp155
I0
F0.010358565737051793
sI1
F0.009362549800796812
sI2
F0.009561752988047808
sI3
F0.0099601593625498
sI4
F0.012151394422310757
sI5
F0.399800796812749
sI6
F0.01055776892430279
sI7
F0.0099601593625498
sI8
F0.008964143426294821
sI9
F0.4159362549800797
sI10
F0.0099601593625498
sI11
F0.010358565737051793
sI12
F0.009362549800796812
sI13
F0.010159362549800797
sI14
F0.0099601593625498
sI15
F0.009760956175298804
sI16
F0.011752988047808765
sI17
F0.011553784860557768
sI18
F0.009760956175298804
sI19
F0.010756972111553785
sa(dp156
I0
F0.010358565737051793
sI1
F0.007569721115537849
sI2
F0.011752988047808765
sI3
F0.012948207171314742
sI4
F0.012350597609561753
sI5
F0.011553784860557768
sI6
F0.009760956175298804
sI7
F0.012749003984063745
sI8
F0.800597609561753
sI9
F0.009362549800796812
sI10
F0.010358565737051793
sI11
F0.011155378486055778
sI12
F0.010756972111553785
sI13
F0.008366533864541833
sI14
F0.0099601593625498
sI15
F0.008964143426294821
sI16
F0.010756972111553785
sI17
F0.012749003984063745
sI18
F0.008366533864541833
sI19
F0.009561752988047808
sa(dp157
I0
F0.40398406374501994
sI1
F0.008565737051792829
sI2
F0.008764940239043825
sI3
F0.009163346613545816
sI4
F0.4087649402390438
sI5
F0.013346613545816732
sI6
F0.009362549800796812
sI7
F0.008764940239043825
sI8
F0.010956175298804782
sI9
F0.009362549800796812
sI10
F0.015139442231075698
sI11
F0.007171314741035857
sI12
F0.011553784860557768
sI13
F0.011354581673306772
sI14
F0.011155378486055778
sI15
F0.008764940239043825
sI16
F0.009760956175298804
sI17
F0.008764940239043825
sI18
F0.012749003984063745
sI19
F0.01254980079681275
sa(dp158
I0
F0.010358565737051793
sI1
F0.012948207171314742
sI2
F0.010159362549800797
sI3
F0.01254980079681275
sI4
F0.007569721115537849
sI5
F0.7916334661354582
sI6
F0.01055776892430279
sI7
F0.012350597609561753
sI8
F0.010756972111553785
sI9
F0.01055776892430279
sI10
F0.010956175298804782
sI11
F0.010358565737051793
sI12
F0.012749003984063745
sI13
F0.010358565737051793
sI14
F0.011752988047808765
sI15
F0.010159362549800797
sI16
F0.010756972111553785
sI17
F0.009362549800796812
sI18
F0.01195219123505976
sI19
F0.012151394422310757
sa(dp159
I0
F0.011752988047808765
sI1
F0.009561752988047808
sI2
F0.011155378486055778
sI3
F0.008167330677290837
sI4
F0.012350597609561753
sI5
F0.011553784860557768
sI6
F0.008764940239043825
sI7
F0.009760956175298804
sI8
F0.011752988047808765
sI9
F0.40836653386454186
sI10
F0.009163346613545816
sI11
F0.010358565737051793
sI12
F0.007768924302788844
sI13
F0.4055776892430279
sI14
F0.008565737051792829
sI15
F0.01195219123505976
sI16
F0.01055776892430279
sI17
F0.010956175298804782
sI18
F0.012948207171314742
sI19
F0.008964143426294821
sa(dp160
I0
F0.009760956175298804
sI1
F0.011155378486055778
sI2
F0.4103585657370518
sI3
F0.007768924302788844
sI4
F0.4069721115537849
sI5
F0.009362549800796812
sI6
F0.009561752988047808
sI7
F0.00796812749003984
sI8
F0.0099601593625498
sI9
F0.009163346613545816
sI10
F0.0099601593625498
sI11
F0.008964143426294821
sI12
F0.010756972111553785
sI13
F0.01254980079681275
sI14
F0.011752988047808765
sI15
F0.009561752988047808
sI16
F0.012151394422310757
sI17
F0.01254980079681275
sI18
F0.010159362549800797
sI19
F0.009561752988047808
sa(dp161
I0
F0.01055776892430279
sI1
F0.009362549800796812
sI2
F0.010956175298804782
sI3
F0.008366533864541833
sI4
F0.012749003984063745
sI5
F0.009561752988047808
sI6
F0.009163346613545816
sI7
F0.009362549800796812
sI8
F0.011155378486055778
sI9
F0.010358565737051793
sI10
F0.010756972111553785
sI11
F0.4137450199203187
sI12
F0.01055776892430279
sI13
F0.400199203187251
sI14
F0.01055776892430279
sI15
F0.013147410358565738
sI16
F0.011155378486055778
sI17
F0.008565737051792829
sI18
F0.011553784860557768
sI19
F0.008167330677290837
sa(dp162
I0
F0.0099601593625498
sI1
F0.012749003984063745
sI2
F0.011354581673306772
sI3
F0.010956175298804782
sI4
F0.012749003984063745
sI5
F0.011155378486055778
sI6
F0.010159362549800797
sI7
F0.011553784860557768
sI8
F0.011553784860557768
sI9
F0.011752988047808765
sI10
F0.7918326693227091
sI11
F0.008764940239043825
sI12
F0.010756972111553785
sI13
F0.009760956175298804
sI14
F0.011553784860557768
sI15
F0.012151394422310757
sI16
F0.010159362549800797
sI17
F0.009362549800796812
sI18
F0.011752988047808765
sI19
F0.0099601593625498
sa(dp163
I0
F0.04661354581673307
sI1
F0.05358565737051793
sI2
F0.04780876494023904
sI3
F0.05756972111553785
sI4
F0.05
sI5
F0.04940239043824701
sI6
F0.051593625498007965
sI7
F0.04780876494023904
sI8
F0.046414342629482075
sI9
F0.05039840637450199
sI10
F0.052191235059760956
sI11
F0.0549800796812749
sI12
F0.047410358565737054
sI13
F0.04820717131474104
sI14
F0.04920318725099602
sI15
F0.043625498007968125
sI16
F0.05398406374501992
sI17
F0.05039840637450199
sI18
F0.05079681274900399
sI19
F0.04800796812749004
sasS'n_states'
p164
I20
sbsS'args'
p165
g4
(cargparse
Namespace
p166
g6
Ntp167
Rp168
(dp169
g3
S'../deepnet/examples/toy/sim3.test.npy'
p170
sS'nstates'
p171
I20
sg31
S'../deepnet/examples/toy/sim3.train.npy'
p172
sg44
S'../deepnet/examples/toy/sim3.valid.npy'
p173
sS'outf'
p174
S'sim3.mult.pkl'
p175
sbs.